(dp0
S'goodvc78'
p1
(dp2
Vbskim987
p3
(dp4
S'following'
p5
(lp6
Vgoodvc78
p7
aVbrunch
p8
assVlotussoul
p9
(dp10
g5
(lp11
Vgoodvc78
p12
aVinsuk
p13
aVsunnysideup
p14
aVyoonballet
p15
assVlastsky1982
p16
(dp17
g5
(lp18
Vbrunchflgu
p19
aVbrunch
p20
aVgoodvc78
p21
aVlifidea
p22
assVhenryhuh
p23
(dp24
g5
(lp25
Vgoodvc78
p26
aVindilab
p27
aVbrunch
p28
assVjunghojin07
p29
(dp30
g5
(lp31
Vgoodvc78
p32
aVmeanimize
p33
aVbrunch
p34
assVbrunch86qv
p35
(dp36
g5
(lp37
Vgoodvc78
p38
aVroh222
p39
aVhomoartcus
p40
aVtoyprince
p41
aValden
p42
aVbrunch
p43
assVyouthee
p44
(dp45
g5
(lp46
Vscottim
p47
aVflatdesign
p48
aVsabumbyun
p49
aVgoodvc78
p50
assVgeubin0414
p51
(dp52
g5
(lp53
Vscottim
p54
aVmissingmay
p55
aVsupims
p56
aVdugi
p57
aVjeremycho
p58
aVsocialinnovator
p59
aVtroicacho
p60
aVkyeongwook-ma
p61
aVvinnie
p62
aVeditorialbe
p63
aVdaeheejang
p64
aVwootaklee
p65
aVmoonshot
p66
aVhajunho
p67
aVdavidsr
p68
aVymlee
p69
aVhyeshik
p70
aVjamess
p71
aVrealhoo
p72
aVpelexus
p73
aVgoodvc78
p74
aVethobisx
p75
aVhika
p76
aVimagineer
p77
aVsunghyunlim
p78
aVohjongin
p79
aVibare
p80
aVhyosha
p81
aVcordiallys
p82
aVpubjinson
p83
aVtechhtml
p84
aVmobiinside
p85
aVnachoclub
p86
aVinsuk
p87
aVeunwoopark
p88
aVlifidea
p89
aVhangganread
p90
aVbreezynodul
p91
aVfrooooogy
p92
aVfavorer
p93
aVyoungwungkim
p94
aVgokeshi
p95
aVmyungjae7
p96
aVbwcho75
p97
aViamquadr
p98
aVitsooda
p99
aVtechsuda
p100
aVnewsquare
p101
aVmeanimize
p102
aVspeedlyh
p103
aVssin23
p104
aVnuribit
p105
aVsooscape
p106
aViliyard
p107
aVplatum
p108
aVryon
p109
aVhaneulalice
p110
aVsos
p111
aVcivil
p112
aVcloud09
p113
aVhope-stone
p114
aVflatdesign
p115
aVyunjungseo
p116
aVjoohoonjake
p117
aVmushman
p118
aVtornpaper
p119
aVjeffpaik
p120
aVrefreshstudio
p121
aVjowlee
p122
aVfive0203
p123
aVsanghoonpak
p124
aVjungkloo
p125
aVjihere1001
p126
aVmanya
p127
aVaboutheman
p128
aVskpman
p129
aVsuyoung
p130
aVgr8idea
p131
aVbang1999
p132
aVpiux
p133
aVcaptaink
p134
aVseiweb
p135
aVdohyunkim
p136
aVbreakthrough
p137
aVhmin0606
p138
aVjungkwon-ahn
p139
aVchataehyeon
p140
aVjmh5531
p141
aVchoikop
p142
aVkkonal
p143
aVjounghoyoo
p144
aVjimmyrim
p145
aVjongsiksong
p146
aVsophie89
p147
aVwadizhib
p148
aVpromise4u
p149
aVsapu0000
p150
aV2589000
p151
aVgenie7pe
p152
aVmobizenpekr
p153
aVjaeseungmun
p154
aVshimgun
p155
aVyoonash
p156
aVneovis
p157
aVwjchee
p158
aVgisoopa
p159
aVbeautytech
p160
aVmarsnine
p161
aVajmind
p162
aValden
p163
aVhead77x
p164
aVborashow
p165
aVgamenext
p166
aVjade
p167
aVsuhanjang
p168
aVladyjeju
p169
aViammento
p170
aVgfsaham
p171
aVbinjis
p172
aVkeymanjc
p173
aVminieetea
p174
aVcleancode
p175
aVsclplus
p176
aVnanta23
p177
aVdooilkim
p178
aVklaus
p179
aVjihoonjeong
p180
aVmadvirus
p181
aViffu
p182
aVyongjinjinipln
p183
aVpxdstory
p184
aVbrunchlftm
p185
aVyoojs8512
p186
aVjigjang
p187
assVgavin
p188
(dp189
g5
(lp190
Vkyeongwook-ma
p191
aVcayden
p192
aVarawn
p193
aVsangpom
p194
aVgoodvc78
p195
aVhajunho
p196
aVdalda
p197
aVperytail
p198
aVbreakthrough
p199
aVkwihun80
p200
aVaboutheman
p201
aVbrunch
p202
assVrollanz
p203
(dp204
g5
(lp205
Vlimelite
p206
aVdooilkim
p207
aVastronomerboy
p208
aVeunwoopark
p209
aVjowlee
p210
aVgoodvc78
p211
aVcaptaink
p212
aVyoungwungkim
p213
aVzip
p214
aVdohyunkim
p215
aVsanghunchae
p216
aVbreakthrough
p217
aVtina337
p218
aVjsksoft
p219
aVyannheo
p220
aVjmh5531
p221
aVhesse24
p222
aVfutureagent
p223
aVraekim
p224
aVsteven
p225
aVnajakaya
p226
aVmeanimize
p227
aVlifidea
p228
aVbrunch
p229
assV01134eo
p230
(dp231
g5
(lp232
Vgoodvc78
p233
aVbrunch
p234
assVsybae0306
p235
(dp236
g5
(lp237
Vbrunchv6ea
p238
aVzohani
p239
aVlainydays
p240
aVgoodvc78
p241
aVmiric
p242
aVbrunchjqcb
p243
aVcreativejuwon
p244
aVhstyle84
p245
aVzip
p246
aVbrunchflgu
p247
aVlucidfall
p248
aVraekim
p249
aVsilvermouse
p250
aVcafesmith
p251
aVgungs
p252
aVjade
p253
aVsadrove
p254
aVsooscape
p255
aVhaneulalice
p256
aVtoyprince
p257
aVwanleehani
p258
aVsuyoung
p259
aVbrunchlftm
p260
aVnotefolio
p261
aVjigjang
p262
aVnitro2red
p263
aVnatu84
p264
aVpxdstory
p265
aVlonelyplanet
p266
aVmrnoface
p267
aVmusiroom
p268
aVjaedi
p269
aVbrunch
p270
assVyunkyungchoo89
p271
(dp272
g5
(lp273
Vgoodvc78
p274
aVyounghojeon
p275
aVbrunch
p276
assVhyejinrnaf
p277
(dp278
g5
(lp279
Vgoodvc78
p280
aVbrunchflgu
p281
aVbrunch
p282
assVhjkds0105
p283
(dp284
g5
(lp285
Vcpa1997
p286
aVjumjan
p287
aVsshong
p288
aVbrunchflgu
p289
aVgoodvc78
p290
aVaboutheman
p291
aVinsuk
p292
aVsophie89
p293
aVjeremyyeun
p294
aVfutureagent
p295
aVyannheo
p296
aVsuyoung
p297
aVjsksoft
p298
aVkozzangnim
p299
aVlifidea
p300
aVhmin0606
p301
aVjinkieun
p302
aVpromise4u
p303
aVcaptaink
p304
aVjimmyrim
p305
aVjino
p306
aV95kimik
p307
aVjihoonjeong
p308
aVsuhanjang
p309
aVbrunch
p310
assVredreamer
p311
(dp312
g5
(lp313
Vyulyul
p314
aVyannheo
p315
aVgoodvc78
p316
aVreinitiate
p317
aVlifidea
p318
aVyoungwungkim
p319
aVcojette
p320
aVcloud09
p321
aVchoikyunghe
p322
aVmangococo
p323
aVleenouy
p324
aVkimminsoo
p325
aVblade31
p326
aVkimjoohyuk
p327
aVbrunch
p328
assVwmkim86rmaa
p329
(dp330
g5
(lp331
Vchaibschaibs
p332
aVwonish
p333
aVgoodvc78
p334
aVjungkloo
p335
aVhaneulalice
p336
aViamquadr
p337
aVcjphynmu
p338
aVpromise4u
p339
aVymlee
p340
aVosyvv
p341
aVkkonal
p342
aVsuhanjang
p343
aVcsj3814
p344
aVpelexus
p345
aVvijay
p346
aVhmin0606
p347
aVtechhtml
p348
aVdbr
p349
aVwjchee
p350
aVjigjang
p351
aVjihoonjeong
p352
aVjimmyrim
p353
aVeunwoopark
p354
aVdengine
p355
aVlifidea
p356
aVsclplus
p357
aVbrunch
p358
assVsnowyn
p359
(dp360
g5
(lp361
Vnonayo
p362
aVckjung
p363
aVquane
p364
aVkellyluvmore
p365
aVbreakthrough
p366
aVlifeinfinland
p367
aVgoodvc78
p368
aVchloetnje
p369
aVzavara15
p370
aVwlsgk28
p371
aVwirteforwrong
p372
aVeasygo
p373
aV9sunmi
p374
aVallstay
p375
aVmryogurt
p376
aVfromairplane
p377
aVloveinyu
p378
aVmila
p379
aVbizism
p380
aVgalleryd
p381
aVexpediakr
p382
aV4u4u
p383
aVyeonboon
p384
aVjaeunyun
p385
aVgblee
p386
aVbirlzip
p387
aVlumafonto
p388
aVohsun101
p389
aVthymus
p390
aVilwoncoach
p391
aVjangnoah
p392
aVsusisters
p393
aVbadventure
p394
aVleaven
p395
aVgohjisoo
p396
aVstillalive31
p397
aVsuomi
p398
aVstrangelife
p399
aVlucidfall
p400
aVhyeonjung
p401
aVdispire82
p402
aVjhbaek
p403
aVjanzisuka
p404
aVdodzj33
p405
aVpo155
p406
aVoyj533
p407
aVcpa
p408
aVdaekyunkim
p409
aVwater-dragon
p410
aVsssp0112
p411
aVjju4rang
p412
aVjaeholee
p413
aVkwihun80
p414
aVmelanellie
p415
aVchoihs0228
p416
aVvanheart
p417
aVghboy2
p418
aVawsomeobig
p419
aVridibooks
p420
aVyjjo
p421
aVdalda
p422
aVmaumdal
p423
aVes-jeong926
p424
aVyunjihoon
p425
aVqurity
p426
aVchaeminc
p427
aValphastar
p428
aVyonghheo
p429
aVc4u
p430
aVkangjak
p431
aVypoi9803v
p432
aVhcloud
p433
aVagnesvonhahn
p434
aVwonish
p435
aVsungjoonnam
p436
aVmarvinwxoq
p437
aVgoodmorningjuc
p438
aVleesempre
p439
aVdpinkie
p440
aVpluepe
p441
aVyunitto
p442
aVsean
p443
aVsungkibaek
p444
aVcreativejuwon
p445
aVbrunchpuup
p446
aVkaywkwkr
p447
aVbaka
p448
aVpromise4u
p449
aVforsy20
p450
aVkkang
p451
aVfutureagent
p452
aVbopboy
p453
aVfyodordoki
p454
aVpshjuly13
p455
aVingcca
p456
aV2589000
p457
aVnirvana77
p458
aVnachoclub
p459
aVkcanari
p460
aVkoreajb
p461
aVchyes
p462
aVjang2699
p463
aVnoblehw
p464
aVjongkfia
p465
aVgrowingmom
p466
aVlasw2324
p467
aVfunder2000
p468
aVpelexus
p469
aVskleessos
p470
aVbenhyunwookim
p471
aVkooning11
p472
aVsooscape
p473
aVraekim
p474
aVsabumbyun
p475
aVbrunch
p476
aVnotefolio
p477
aVhamcock2008
p478
aVsongyiahn
p479
aVgroovetube
p480
aVjaewonlee9lzy
p481
aVwisehyeon1021
p482
aVyoonsungkoo
p483
aVsuekimir6v
p484
aVperytail
p485
aVholnet
p486
aVjoohoonjake
p487
aVnkt109
p488
aVmapsi97
p489
aVmadchick
p490
aVfusion07007
p491
aVpqrs761025
p492
aVyokurong
p493
aVyeonkyoungroh
p494
aVhong1504
p495
aVbrunchflgu
p496
aVjungeunjung
p497
aVsuhyun6789
p498
aVpolykid
p499
aVimkssan
p500
aVneddaland
p501
aVstynerk
p502
aVyeopatheart
p503
aVduncan
p504
aVmr-kim
p505
aVjsksoft
p506
aVamcmd
p507
aVminmi-park
p508
aVimhyeon
p509
aVbrunchpgsh
p510
aVbrunchukn0
p511
aVshady
p512
aVpppop66
p513
aViamlove
p514
aVlloo1135
p515
aVbrunchaeig
p516
aVsejinjeong
p517
aV0zine
p518
aVmofalose
p519
aVtwo-tone
p520
aVkimjoon
p521
aVo3135nio
p522
aVrhee1957
p523
aVjade
p524
aVjooyeonlim
p525
aVminsu33
p526
aVccstwd
p527
aVbrunchqxk5
p528
aVyoungminjung
p529
aVhyulran
p530
aVbrunchfme6
p531
aVjuturn
p532
aVbestcha
p533
aVheracho
p534
aVjinnieous
p535
aVbabosamo
p536
aVcloud
p537
aVtschoe56
p538
aVyoonjikwon
p539
aVeastgo
p540
aVjaedi
p541
aVsallym
p542
aVhaneulalice
p543
aV1yearholiday
p544
aV5345341
p545
aVhope-stone
p546
aVhancoma
p547
aVmrkwondo
p548
aVsophyntaste
p549
aVsuhanjang
p550
aVbrunchlftm
p551
aVjungjina
p552
aVeunkyunghon
p553
aVkimminsoo
p554
aVrothem
p555
aVmatt
p556
aVbrunchwxdb
p557
aVleenouy
p558
aVyeunsookim
p559
aVmrnoface
p560
aVbrandcong
p561
aVhowtotravel
p562
aVillumi33
p563
aV231project
p564
aVromanticgrey
p565
aValice
p566
aVensemble-suh
p567
aVwabang
p568
aVeditorialbe
p569
aVcoffeens
p570
aVjunhey1108
p571
aVkimmincheol
p572
aVsadrove
p573
aVbombom1001
p574
aVdaljasee
p575
aVdiem
p576
aVminam
p577
aVdono
p578
aVartisker
p579
aVhomoartcus
p580
aVseungwanhon
p581
aVelroy
p582
aVyoon
p583
aVlonelyplanet
p584
aVbabydiary
p585
aVmiyoungbaek
p586
aVpxdstory
p587
assVkaldokim
p588
(dp589
g5
(lp590
Vgoodvc78
p591
aVsensee
p592
aVimagineer
p593
aVdohyunkim
p594
aVcloud09
p595
aValice
p596
aVnuribit
p597
aVpromise4u
p598
aVjoohoonjake
p599
aVshala
p600
aVsuyoung
p601
aVwjchee
p602
aVswizzle
p603
aVsean
p604
aVsooscape
p605
aVdbr
p606
aVchataehyeon
p607
aVintranet
p608
aVbrunch
p609
assVdannykwon
p610
(dp611
g5
(lp612
Vbang1999
p613
aVgoodvc78
p614
aVelara1020
p615
aVwonhada
p616
aVjimbeeny
p617
aVjaeseungmun
p618
aVlonelyplanet
p619
aVbrunch
p620
assViamq3xc
p621
(dp622
g5
(lp623
Vreinitiate
p624
aVgoodvc78
p625
aVjaydensehee
p626
aVlifidea
p627
aVbrunch
p628
assVami
p629
(dp630
g5
(lp631
Vdj0999
p632
aVsustainlife
p633
aV2kija
p634
aVgoodvc78
p635
aVcinehvwm
p636
aVsuyoung
p637
aVdalda
p638
aVsuhanjang
p639
aVyunjungseo
p640
aVjimmyrim
p641
aVsooscape
p642
aVmeanimize
p643
aVbrunch
p644
assVexynos3
p645
(dp646
g5
(lp647
Vsonujung
p648
aVfive0203
p649
aVseonyu10
p650
aVfola16
p651
aVknockknock
p652
aVjmh5531
p653
aVjamding
p654
aVjumjan
p655
aVdavidsr
p656
aVdol74
p657
aVwhaleyeon
p658
aVteddybae
p659
aVapost
p660
aVlegend
p661
aVscottim
p662
aVsupims
p663
aVtyphoonk83
p664
aVfstory
p665
aVbrunchnwkd
p666
aVshimwon
p667
aVwirteforwrong
p668
aVbrunchega3
p669
aVlovefashion
p670
aVplaydeep
p671
aVvytlgud
p672
aVsigol
p673
aVyunjungseo
p674
aVsangwonsuh
p675
aVjade
p676
aVsnobberys
p677
aVvanheart
p678
aVsoyoungkim
p679
aVjaeholee
p680
aVstorypower
p681
aVkangsunseng
p682
aVhwanheeryu
p683
aVkwihun80
p684
aVyannheo
p685
aVseokkim21
p686
aVborashow
p687
aVchoihs0228
p688
aVsungjoonnam
p689
aVjaehee92
p690
aVarchitect-shlee
p691
aVcaptaink
p692
aVglobaltogo
p693
aVc4u
p694
aVdobedobedo
p695
aVdong02
p696
aVstillalive31
p697
aVminam
p698
aVstevehan
p699
aVimagineer
p700
aVjinsoo1eas
p701
aVsteven
p702
aVjwj0416
p703
aVchoikop
p704
aVcellistshoo
p705
aVeomtank
p706
aVnim2mei9l3
p707
aVinternomago
p708
aVparcchanyong
p709
aVelara1020
p710
aVdelight412
p711
aVdndb21
p712
aVkoreajb
p713
aVleesempre
p714
aVkjbsy
p715
aVthick99
p716
aVsensee
p717
aVbookdb
p718
aVjigjang
p719
aVsaint0565
p720
aVfermata
p721
aVjoonomics
p722
aVchyes
p723
aVzagmaster
p724
aVhstyle84
p725
aVwhitequeen
p726
aVartincity
p727
aVbirlzip
p728
aVrealhoo
p729
aV2kija
p730
aVgoodvc78
p731
aVpelexus
p732
aVrexsoma0901
p733
aVkazuma
p734
aVy-sean
p735
aVnaymore
p736
aVguitarohyyy
p737
aVjigunamja
p738
aVlk-story
p739
aVjaeseungmun
p740
aVtakk
p741
aVnpulen
p742
aVingcca
p743
aVgoodbyepain
p744
aVcreativejuwon
p745
aVfuturewave
p746
aVsabumbyun
p747
aVeditorialbe
p748
aVshoostory
p749
aVreadingnomad
p750
aViyagikot
p751
aVwikitree
p752
aVhyunhochu
p753
aVdronestarting
p754
aVaghermes
p755
aVquane
p756
aVwater-dragon
p757
aVchaeminc
p758
aVaboutheman
p759
aVthisisjieun
p760
aVplusclov
p761
aVjungkwon-ahn
p762
aV95kimik
p763
aVyoungryulch
p764
aVemor
p765
aVbrunchsbqh
p766
aVhitchwill
p767
aVjobhelping
p768
aVsinji27
p769
aVhyewonable
p770
aVfebruary
p771
aVsshong
p772
aVminieetea
p773
aVbotongmarketer
p774
aVjimmyrim
p775
aVbrunchflgu
p776
aVphilosophus
p777
aVdeckey1985
p778
aVbreakthrough
p779
aVbrunchizh0
p780
aVqsfamily
p781
aVquietgogo
p782
aVpaper
p783
aVyoojs8512
p784
aVbwcho75
p785
aVmitpiki
p786
aVmobiinside
p787
aVjeffpaik
p788
aVtechsuda
p789
aVstarskylight
p790
aVarambaek
p791
aVyonghheo
p792
aVyulyul
p793
aVleaven
p794
aVbang1999
p795
aVhesse24
p796
aVzip
p797
aVindilab
p798
aVsuhanjang
p799
aVmoonskjc
p800
aVyper
p801
aVfutureagent
p802
aVblade31
p803
aVteam-slogup
p804
aVmatt
p805
aVtsp
p806
aVlifidea
p807
aVjinhyunpark
p808
aVsymriro
p809
aVjhwhjn
p810
aVinsuk
p811
aVbrunch
p812
assVjeffreyjung
p813
(dp814
g5
(lp815
Vjaeeonryoo
p816
aVdndb21
p817
aVpelexus
p818
aVjamess
p819
aVbrunchjqcb
p820
aVgoodvc78
p821
aVjmh5531
p822
aVsooscape
p823
aVstillalive31
p824
aVwjchee
p825
aVsanghoonpak
p826
aVpromise4u
p827
aVjowlee
p828
aVbrunch4nrs
p829
aVaboutheman
p830
aVjaedi
p831
aViliyard
p832
aVmanya
p833
aVbreakthrough
p834
aVsoonkyujang
p835
aVyoonash
p836
aVdohyunkim
p837
aVmarsnine
p838
aVajmind
p839
aVyudong
p840
aVrothem
p841
aVkkonal
p842
aVhead77x
p843
aVsshong
p844
aVsuhanjang
p845
aVbrunchflgu
p846
aVbrunch
p847
assVi7tree
p848
(dp849
g5
(lp850
Vjinsoo1eas
p851
aVdukelung
p852
aVpelexus
p853
aVgoodvc78
p854
aVmanya
p855
aVjsksoft
p856
aVitsooda
p857
aVchaeminc
p858
aVwanleehani
p859
aVyoojs8512
p860
aVbreakthrough
p861
aVajmind
p862
aVhaneulalice
p863
aVsclplus
p864
aVhmin0606
p865
aVbrunchrd3j
p866
aVbrunchflgu
p867
aVsuhanjang
p868
aVbrunch
p869
assVdojinko
p870
(dp871
g5
(lp872
Vdoberman
p873
aVtsp
p874
aVgoodvc78
p875
aVdbr
p876
aVashitaka
p877
aVdexter
p878
aVmelanellie
p879
aVplatina02
p880
aVjoshkwon
p881
aVknockknock
p882
aVhitchwill
p883
aVmanya
p884
aVaboutheman
p885
aVhaneulalice
p886
aVjinkieun
p887
aVpromise4u
p888
aVcjphynmu
p889
aVjigjang
p890
aVgenie7pe
p891
aVsapu0000
p892
aVbrunchflgu
p893
aVsuomi
p894
aVbo0
p895
aVyoonash
p896
aVwjchee
p897
aVnitro2red
p898
aVyoojs8512
p899
aVhead77x
p900
aVnergul01
p901
aVsuhanjang
p902
aVbrunch
p903
assVflatdesign
p904
(dp905
g5
(lp906
Vscottim
p907
aVgoodvc78
p908
aVpelexus
p909
aVpxdstory
p910
aVchataehyeon
p911
aVfive0203
p912
aVmeanimize
p913
aVpromise4u
p914
aVjimmyrim
p915
aVlifidea
p916
aVmarsnine
p917
aVjihoonjeong
p918
aVplatina02
p919
aVmobiinside
p920
aVlainydays
p921
aVgenie7pe
p922
aVmyte
p923
aVsuyoung
p924
aVjaeseungmun
p925
aVbrunch1uhl
p926
aVeastgo
p927
aVbrunch4nrs
p928
aVbrunchk0qq
p929
aVyunjungseo
p930
aVsapu0000
p931
aVboramkim
p932
aVbrunch
p933
assVvista4336
p934
(dp935
g5
(lp936
Vwootaklee
p937
aVmediafish
p938
aVhead77x
p939
aVymoon
p940
aVleesempre
p941
aVmitpiki
p942
aVpelexus
p943
aVgoodvc78
p944
aVhstyle84
p945
aVshinseungkeon
p946
aVjaeseungmun
p947
aVnonayo
p948
aVawsomeobig
p949
aVacgroup
p950
aVbrunchjqcb
p951
aVbrunch
p952
assVjmingyu
p953
(dp954
g5
(lp955
Vparkdabin
p956
aVkkonal
p957
aVsoldonii
p958
aVehdwlsez4ge
p959
aVnpulen
p960
aVzagmaster
p961
aVeastrain
p962
aVgreenful
p963
aVgoodvc78
p964
aVlk-story
p965
aVlaughingbeans
p966
aVdesigndesign
p967
aVokaytina
p968
aVmatryo
p969
aVjeremycho
p970
aVtuburkis
p971
aVliha
p972
aVcayden
p973
aVfuturewave
p974
aVcreativejuwon
p975
aVquane
p976
aVzip
p977
aVlaurentiusj
p978
aVhachistory
p979
aVbrunchega3
p980
aVsweetmeen
p981
aVkty0613
p982
aVpeony
p983
aVrawandb
p984
aVsyrljk12
p985
aVhyosha
p986
aVtechsuda
p987
aVsymriro
p988
aVhomoartcus
p989
aVyoojs8512
p990
aVvytlgud
p991
aVmygirl2797
p992
aVseonyu10
p993
aVromanticgrey
p994
aVmystelee
p995
aV2kija
p996
aVsensee
p997
aVjhwhjn
p998
aVhmin0606
p999
aVyonghheo
p1000
aVbwcho75
p1001
aVyannheo
p1002
aVleaven
p1003
aVjaeholee
p1004
aVprorange
p1005
aVcojette
p1006
aVsooscape
p1007
aVspeedlyh
p1008
aVyunjungseo
p1009
aVyoungwungkim
p1010
aVsuyoung
p1011
aVrats
p1012
aVhajunho
p1013
aVhancoma
p1014
aVbrunchk2h4
p1015
aVleejaegoo
p1016
aVmeanimize
p1017
aVfive0203
p1018
aVsterdam
p1019
aVhojunna
p1020
aVcivil
p1021
aVdarakstory
p1022
aVchataehyeon
p1023
aVkangjak
p1024
aVintranet
p1025
aVkwihun80
p1026
aVmicamica199
p1027
aVgenie7pe
p1028
aVshoostory
p1029
aVjaeseungmun
p1030
aVmyte
p1031
aVdbs1260023
p1032
aVkangsunseng
p1033
aVjoyjun7
p1034
aVminji1120
p1035
aVjoshkwon
p1036
aVsuperdreamy
p1037
aVryuhyejin
p1038
aV19-21p
p1039
aVbohri1988
p1040
aVreinia
p1041
aVkamsungk
p1042
aVkorlang
p1043
aVcloud09
p1044
aVbrunch
p1045
assVjts87
p1046
(dp1047
g5
(lp1048
Vhajunho
p1049
aVgoodvc78
p1050
aVimagineer
p1051
aVbrunch
p1052
assVseongwoonse
p1053
(dp1054
g5
(lp1055
Vyper
p1056
aVthebetterday
p1057
aVvijay
p1058
aVgoodvc78
p1059
aVtechsuda
p1060
aVtsp
p1061
aVdatasciencedude
p1062
aVwing365
p1063
aVgundigi
p1064
aVjodongin
p1065
aV4891peterkim
p1066
aVeastgo
p1067
aVitsooda
p1068
aVpiux
p1069
aVskyscanner
p1070
aVimagineer
p1071
aVjisundream
p1072
aVcordiallys
p1073
aVbrunchizh0
p1074
aVyoonkh86
p1075
aVbrunchflgu
p1076
aVjoonomics
p1077
aVsuhanjang
p1078
aVcleancode
p1079
aVklaus
p1080
aVbrunch
p1081
assVchoijinkyu
p1082
(dp1083
g5
(lp1084
Vgoodvc78
p1085
aVcojette
p1086
aVmitchell
p1087
aVbrunch
p1088
assVflowday
p1089
(dp1090
g5
(lp1091
Vhope-stone
p1092
aVlifidea
p1093
aVwirteforwrong
p1094
aV2kija
p1095
aVtellcorea
p1096
aVvytlgud
p1097
aVmatthew-chang
p1098
aVyggdrasil
p1099
aVzamong
p1100
aVdndb21
p1101
aVsungjoonnam
p1102
aVgoodvc78
p1103
aVkkonal
p1104
aVsensee
p1105
aVno1hsk
p1106
aVdoberman
p1107
aVsunsutu
p1108
aVpelexus
p1109
aVdbr
p1110
aVyoungryulch
p1111
aVbotongmarketer
p1112
aVossian
p1113
aVbrunchjnux
p1114
aVindilab
p1115
aVinsuk
p1116
aVsilvermouse
p1117
aVarambaek
p1118
aVthebetterday
p1119
aVzip
p1120
aVeundang
p1121
aVeunwoopark
p1122
aVwadizhib
p1123
aVplusclov
p1124
aVopencommz
p1125
aVjmh5531
p1126
aVansyd
p1127
aV1300
p1128
aVsperalist
p1129
aVyannheo
p1130
aVfavorer
p1131
aVryanmoon83
p1132
aVknockknock
p1133
aVyoojs8512
p1134
aVjoohoonjake
p1135
aVmushman
p1136
aVwjchee
p1137
aVjustgo
p1138
aVeastgo
p1139
aVbrunchflgu
p1140
aVbrunch4nrs
p1141
aVrats
p1142
aVwanleehani
p1143
aVkkang
p1144
aVkaldokim
p1145
aVbrunchdhqp
p1146
aVchaeminc
p1147
aVintranet
p1148
aVhaneulalice
p1149
aVsterdam
p1150
aV8percent
p1151
aVbreakthrough
p1152
aVjinkieun
p1153
aVaboutheman
p1154
aVshixicheng
p1155
aVseungwanhon
p1156
aVladyjeju
p1157
aVpsspsshi
p1158
aVmiric
p1159
aVpromise4u
p1160
aVbang1999
p1161
aVjimmyrim
p1162
aVyoonash
p1163
aVmobiinside
p1164
aVsshong
p1165
aVnovelman
p1166
aVsuomi
p1167
aVjihoonjeong
p1168
aVmistyfriday
p1169
aVyoon
p1170
aVbrunch
p1171
assVboymeetgirl
p1172
(dp1173
g5
(lp1174
Vlifidea
p1175
aVgoodvc78
p1176
aVaidenswmo
p1177
aVyeinz
p1178
aVmanya
p1179
aVcaptaink
p1180
aVdaljasee
p1181
aVjangnoah
p1182
aVairtight
p1183
aVdoubleshot
p1184
aVihearyou
p1185
aVjade
p1186
aVborashow
p1187
aVhomoartcus
p1188
aVurbanist
p1189
aVmanaka
p1190
aVpxdstory
p1191
aVseanpyo
p1192
aVlonelyplanet
p1193
aVvislakr
p1194
aVbrunch
p1195
assVbrunch7se0
p1196
(dp1197
g5
(lp1198
Vscottim
p1199
aVchaibschaibs
p1200
aVpubjinson
p1201
aVgoodvc78
p1202
aVimagineer
p1203
aVymlee
p1204
aVjamess
p1205
aVdatasciencedude
p1206
aVaidenswmo
p1207
aVjaeyeonkim
p1208
aVtechsuda
p1209
aVthebetterday
p1210
aVsng2c
p1211
aVibare
p1212
aVsunghyunlim
p1213
aVhika
p1214
aVarawn
p1215
aVohjongin
p1216
aVinsuk
p1217
aVtechhtml
p1218
aVmanya
p1219
aVjinkieun
p1220
aVxenix
p1221
aVchan
p1222
aVsooscape
p1223
aVspeedlyh
p1224
aVsapu0000
p1225
aVyunjungseo
p1226
aVmeanimize
p1227
aVmushman
p1228
aVwjchee
p1229
aVyongjinjinipln
p1230
aVsuyoung
p1231
aVswizzle
p1232
aVbrunch4nrs
p1233
aVkaldokim
p1234
aVsclplus
p1235
aViamquadr
p1236
aVacet
p1237
aVjaeseungmun
p1238
aValden
p1239
aVpromise4u
p1240
aVyudong
p1241
aVdaeheejang
p1242
aVmatt
p1243
aVbrunchlftm
p1244
aVkkonal
p1245
aVminieetea
p1246
aVjimmyrim
p1247
aVeliotkang
p1248
aVjinju32
p1249
aVcleancode
p1250
aVborashow
p1251
aVhurderella
p1252
aVmadvirus
p1253
aVpxdstory
p1254
aVgenie7pe
p1255
aVmyte
p1256
aVbrunch
p1257
assVbrunchup16
p1258
(dp1259
g5
(lp1260
Vgoodvc78
p1261
aVflatdesign
p1262
aVfive0203
p1263
aVbrunch
p1264
assVparanoeac
p1265
(dp1266
g5
(lp1267
Vsupims
p1268
aVbrunchaukx
p1269
aVimagineer
p1270
aVseojoon
p1271
aVgoodvc78
p1272
aVyper
p1273
aVroasterkay
p1274
aVinsuk
p1275
aVsunsutu
p1276
aVbrunch
p1277
assVdaeheejang
p1278
(dp1279
g5
(lp1280
Vgoodvc78
p1281
aVvivakakao
p1282
aVbrunch
p1283
aVbabosamo
p1284
aVsean
p1285
aVsunmyung
p1286
aVmystelee
p1287
aVmumu
p1288
aVwonish
p1289
aVrealhoo
p1290
aVshoostory
p1291
aVplatum
p1292
aVwejustmethere
p1293
aVmobiinside
p1294
aVhstyle84
p1295
aVzip
p1296
aVcryshycrysy
p1297
aVinsuk
p1298
aVbangzi
p1299
aVsunnysideup
p1300
aVyunjungseo
p1301
aVpshkkk3
p1302
aVbreakthrough
p1303
aVtschoe56
p1304
aVflyjy724
p1305
aVhaneulalice
p1306
aVluckyla
p1307
aVsclplus
p1308
aVthe2ndact
p1309
aVmotorfact
p1310
aVjiyeonma
p1311
aVjaeseungmun
p1312
aVmyte
p1313
aVlise
p1314
aVyoojs8512
p1315
aVfunder2000
p1316
aVhancoma
p1317
aVbrunchflgu
p1318
aVhappython
p1319
aVkyangkyang
p1320
aVhwangsh61
p1321
aVsuomi
p1322
aVquelle
p1323
aVsuhanjang
p1324
aVgfsaham
p1325
aVsamgim-masitda
p1326
aVsunkyoungch
p1327
aVjaehyunkim
p1328
aVdaddytt
p1329
aVjongsunyoo
p1330
aVstoaartist
p1331
aVesther220
p1332
aVclinky85
p1333
aVzhanghaochen
p1334
aVglamcha
p1335
aVbrandcong
p1336
aVksk3895
p1337
aVor-dinary
p1338
aVfromairplane
p1339
aVexuvia
p1340
aVmnmn
p1341
aVmrkwondo
p1342
aVsosom
p1343
aVrose408037
p1344
aV231project
p1345
aVjigjang
p1346
aVhyejinchoi
p1347
aVliam
p1348
aVloveinsight
p1349
aVqurity
p1350
aV2kija
p1351
aVjangnoah
p1352
aVshixicheng
p1353
aVeastgo
p1354
aVtuburkis
p1355
aVhanisa
p1356
aVjepaperlqxo
p1357
aVkomsy1201
p1358
aViamquadr
p1359
aVyswillygvb4
p1360
aVkitaeaugust
p1361
aVhockeydaddy
p1362
aVfutureshaper
p1363
aVsustainlife
p1364
aVslowlife
p1365
aVsulijeon
p1366
aVannie
p1367
aVmakecake
p1368
aVdaeunjeong
p1369
aVonefineday
p1370
aVnotefolio
p1371
aVlitandthink
p1372
aVwabang
p1373
aVson6336
p1374
aVdobbyhan
p1375
aV20timeline
p1376
aVduqtk
p1377
aVhosungsong
p1378
aVtraveler
p1379
aVnitro2red
p1380
aVby100
p1381
aVeastrain
p1382
aVmadvirus
p1383
aVrocker
p1384
aVphotographe
p1385
aVdpinkie
p1386
aVdeankim
p1387
aVurbanist92
p1388
aVsoodafat
p1389
aVanticham7
p1390
aVmeca
p1391
aVhonalove
p1392
aVblade31
p1393
aVbloggertip
p1394
aVdongminshin
p1395
aVdrcarter
p1396
aVseanpyo
p1397
aVrothem
p1398
aVpierrebk4y
p1399
aVdaljasee
p1400
aVthdamthdam
p1401
aVtodayfootball
p1402
aVhws321
p1403
aVneoyujun
p1404
aVseoulsale
p1405
aVfscloud
p1406
aVbrunch699f
p1407
aVhakduri
p1408
aVperytail
p1409
aVbombom1001
p1410
aVkrazyeom
p1411
aVhcyoon
p1412
aV95kimik
p1413
aVlllshotlll
p1414
aVyoon
p1415
aVdandinam
p1416
aVynabis
p1417
aVjustjiwon
p1418
aVranicho
p1419
aVwookipedia
p1420
aVblackangel94
p1421
aVbabydiary
p1422
aVlumafonto
p1423
aVkkang
p1424
aVsnowpepper
p1425
aVblackcat
p1426
aVokjaya
p1427
aVkisin
p1428
aVrarina2
p1429
aVthejjune
p1430
aVblue-pen
p1431
aVhomoartcus
p1432
aVbrunch1kvm
p1433
aVborashow
p1434
aVnewscjdany
p1435
aVpsspsshi
p1436
aVoyeoye
p1437
aVsongjh03
p1438
aVhongjina
p1439
aVneop
p1440
aValvintestt3fl
p1441
aVokela4
p1442
aVhocbeta
p1443
aVfodclpark8yjp
p1444
aVrosa
p1445
aVsunmind
p1446
aVyuhanrox
p1447
aVdiem
p1448
aVpxdstory
p1449
aVfilm-art
p1450
aVchanny
p1451
aVparkpd4021
p1452
aVinsookdream
p1453
aVmangococo
p1454
aVpsykiest
p1455
aViamfineandyou
p1456
aVlonelyplanet
p1457
aVmuryangg
p1458
aVbumjinyun
p1459
aVshinjongyun
p1460
aVrestday
p1461
aVd123r34
p1462
aVdennis
p1463
aVsemikim
p1464
aVwilljw
p1465
aVbyiphone
p1466
aVlinsey
p1467
aVnotinoti
p1468
aViyiy1
p1469
aVsunghyunjos
p1470
aVyokurong
p1471
aVtommyzil1
p1472
aVpicture2
p1473
aVartforlifessake
p1474
aVgkrttod
p1475
aVbrunch1dld
p1476
aVbonnie
p1477
aVsungmoklee
p1478
aVyongjinjin2fm2
p1479
aV1percentjyou
p1480
aVculturearch
p1481
aVelroy
p1482
aVjabez
p1483
aVsanjuc
p1484
aVwritingo119
p1485
aVday
p1486
aVperfumegraphy
p1487
aVkimhyunju
p1488
aVminacinch
p1489
aVbrunchwgay
p1490
aVcrizin
p1491
aVizabel44hzm
p1492
aVkeesungpentz02q
p1493
aVyangsungmin
p1494
aVway0706
p1495
aVilhwancho
p1496
aVparcchanyong
p1497
aVkimjunghwa
p1498
aVswan9899
p1499
aVryanyooaddict
p1500
aVanonymity
p1501
aVkay
p1502
aValicefuxr
p1503
aVsupersupa
p1504
aVnimo
p1505
aVbrunchoo6a
p1506
aVmay
p1507
aVcreativeosy
p1508
aVgakju
p1509
aVcat
p1510
aVbenjaminbrc7
p1511
aVchase
p1512
aVkimkwan
p1513
aVcoolaldo
p1514
aVfelix
p1515
aVmintjinnyewo
p1516
aVswizzle
p1517
aVpowerblog
p1518
aVseoul
p1519
aVmobizenpekr
p1520
aVstorytailor
p1521
aVunicefkcu
p1522
aVjaedi
p1523
aVbong
p1524
aVwanleehani
p1525
aVseoulgrandma
p1526
aVthecommaa
p1527
aVjin
p1528
aVnewsroom
p1529
aVdeleuze
p1530
aVstopfornow
p1531
aVsk0279
p1532
aVleenouy
p1533
aVminam
p1534
aVjejugrapher
p1535
aVartkee
p1536
aVbanghaklife
p1537
aVsana2p
p1538
aVdono
p1539
aVhanulaby
p1540
aVwigiri
p1541
aVmyungjinjun
p1542
aVoreoangela
p1543
aVromanticgrey
p1544
aVmushman
p1545
aVsongsoon
p1546
aVmsfkorea
p1547
aVsiso
p1548
aV19831011
p1549
aVgretta
p1550
aVkudokun
p1551
aVhwangja
p1552
aVmelo
p1553
aVjimin
p1554
aVjean
p1555
aVfiveing
p1556
aVcvision33
p1557
aVcieljs
p1558
aVblackh
p1559
aVarabicacaffeine
p1560
aVyoungrimkim
p1561
aVjraymundus
p1562
aVmotorcycle
p1563
aVstarfirm
p1564
aVtinydova
p1565
aVssun
p1566
aVsweetheart
p1567
aVhan
p1568
aVlol
p1569
aVgladysjung
p1570
aVcsj3814
p1571
aVjinsupark
p1572
aVartisker
p1573
aVbrunchw9hw
p1574
aVwriter
p1575
aVshochan
p1576
aVleeyoojin
p1577
aVhwaada
p1578
aVhabit
p1579
aVwhaletreeking
p1580
aVyirgachefe
p1581
aVbrunch8m3s
p1582
aVgapyear
p1583
aVhowweare
p1584
aVsigol
p1585
aVdddd
p1586
aVtampopo
p1587
aVbang1999
p1588
aVdauac
p1589
aVwinter
p1590
aVtina337
p1591
aVcheese
p1592
aVyeda
p1593
aVtornpaper
p1594
aVdewey
p1595
aVbeatto
p1596
aVjazzsnobs
p1597
aVstudiosagigoon
p1598
aVunitasbrand
p1599
aVbegintalk
p1600
aVdefine
p1601
aVpitapat
p1602
aVseonmichoi
p1603
aVzerohour
p1604
aVuzoozoo
p1605
aVamelie
p1606
aVkimheekyunguq0d
p1607
aVminieetea
p1608
aVactiondirect
p1609
aVseungwanhon
p1610
aVpaper
p1611
aVzazzseo
p1612
aVandante8624
p1613
aVbackpacker
p1614
aVtorynara
p1615
aVophilia
p1616
aVdwaykang
p1617
aVjoostory
p1618
aVprayise
p1619
aVelsahime
p1620
aVkisook
p1621
aVdrawnote
p1622
aVjulie
p1623
aVyongjinjinipln
p1624
aVdelius
p1625
aVihappykjmrjp
p1626
aVcoffee
p1627
aVmarcel
p1628
aVjypark
p1629
aVjeju
p1630
aVryan
p1631
aVkid
p1632
aVcloud
p1633
aVkean
p1634
aVjessikim
p1635
aVtoystory
p1636
aVsadrove
p1637
aVspring
p1638
aVwelcomeban
p1639
aVvoid
p1640
aVparang
p1641
aVbelle
p1642
aVjbbae
p1643
aVevelina
p1644
aVluciedream
p1645
aVsexyguy
p1646
aVjade
p1647
aVelijah
p1648
aVsample
p1649
aVsally
p1650
aVamber
p1651
aVasrada
p1652
aVara
p1653
aValice
p1654
aVjongmin
p1655
aVhyonee
p1656
aVray
p1657
aVeugene
p1658
assVbohyungkimnxu
p1659
(dp1660
g5
(lp1661
Vdndb21
p1662
aVwirteforwrong
p1663
aVchaibschaibs
p1664
aVlonelyplanet
p1665
aVsungjoonnam
p1666
aVdavidsr
p1667
aVstevehan
p1668
aVthinkboxkyle
p1669
aVeomtank
p1670
aVkoreajb
p1671
aVgoodvc78
p1672
aVpelexus
p1673
aVpigs
p1674
aVpinie
p1675
aVacgroup
p1676
aVbrunchflgu
p1677
aVraekim
p1678
aVmissingmay
p1679
aVjoohoonjake
p1680
aVbotongmarketer
p1681
aVbrunchjqcb
p1682
aVinsuk
p1683
aVbabydiary
p1684
aVarambaek
p1685
aVjowlee
p1686
aVpubjinson
p1687
aVfunder2000
p1688
aVhyejinchoi
p1689
aVtechhtml
p1690
aVmanya
p1691
aVitsooda
p1692
aVtechsuda
p1693
aVjaeholee
p1694
aVxenix
p1695
aVyannheo
p1696
aVjsksoft
p1697
aVmarsnine
p1698
aVsuyoung
p1699
aVsuhanjang
p1700
aVyoojs8512
p1701
aVyongjinjinipln
p1702
aVhaneulalice
p1703
aV1yearholiday
p1704
aVlifidea
p1705
aVhmin0606
p1706
aVborashow
p1707
aVchoikop
p1708
aVskpman
p1709
aVmsra81
p1710
aVdriedpersimmon
p1711
aVbrunchlftm
p1712
aViamquadr
p1713
aVbrunch
p1714
assVgnsehtl
p1715
(dp1716
g5
(lp1717
Vsungjoonnam
p1718
aVkkonal
p1719
aVsclplus
p1720
aVgoodvc78
p1721
aVbrunchjqcb
p1722
aVsooscape
p1723
aVilwoncoach
p1724
aVyunjungseo
p1725
aVyongjinjinipln
p1726
aVjowlee
p1727
aVbrunch
p1728
assVkylef0im
p1729
(dp1730
g5
(lp1731
Vinternomago
p1732
aVgoodvc78
p1733
aVgreenful
p1734
aVjimmyrim
p1735
aViamquadr
p1736
aVdobbyhan
p1737
aValden
p1738
aVbrunch
p1739
assVnamwh
p1740
(dp1741
g5
(lp1742
Vgoodvc78
p1743
aVc4u
p1744
aVbrunch
p1745
assVsufeel97
p1746
(dp1747
g5
(lp1748
Vtellcorea
p1749
aVjumjan
p1750
aVpelexus
p1751
aVyellowtrip
p1752
aVdavidsr
p1753
aVsensee
p1754
aVgahye
p1755
aVgoodvc78
p1756
aVzip
p1757
aVsilvermouse
p1758
aVstarskylight
p1759
aVraekim
p1760
aVbookdb
p1761
aVyonghheo
p1762
aVsustainlife
p1763
aVherosoob
p1764
aVjsksoft
p1765
aVbang1999
p1766
aVhoho5492
p1767
aVconnieworld
p1768
aVplusclov
p1769
aVtcatkr
p1770
aVpjh5101
p1771
aVbeat
p1772
aVmaumdal
p1773
aVmakecake
p1774
aVanalog
p1775
aVsnim83
p1776
aVgreenpeacekorea
p1777
aVwjchee
p1778
aVguxist
p1779
aVtschoe56
p1780
aVeonr123
p1781
aVsuyoung
p1782
aVbrunch4nrs
p1783
aVborashow
p1784
aVrats
p1785
aVhappyjisu
p1786
aVhesse24
p1787
aVsunnysideup
p1788
aVbaka
p1789
aVaboutheman
p1790
aVpromise4u
p1791
aVhaneulalice
p1792
aVdohyunkim
p1793
aV1100px
p1794
aVopri
p1795
aV1yearholiday
p1796
aVyoonash
p1797
aVjimmyrim
p1798
aVsterdam
p1799
aVfunder2000
p1800
aVihearyou
p1801
aVsophie89
p1802
aVsoleillove
p1803
aVrothem
p1804
aVjoonomics
p1805
aVsapu0000
p1806
aV2589000
p1807
aVbrunchrd3j
p1808
aVsshong
p1809
aVastonut
p1810
aVjaeseungmun
p1811
aVyudong
p1812
aVmean1000
p1813
aVbookgom
p1814
aVchancalli
p1815
aVonec
p1816
aVilwoncoach
p1817
aVyoonjikwon
p1818
aVdbr
p1819
aVgisoopa
p1820
aVclinky85
p1821
aVyoojs8512
p1822
aVtoyprince
p1823
aVhosungsong
p1824
aVjihoonjeong
p1825
aVaracho
p1826
aVphoebescafe
p1827
aVcli-annah
p1828
aVhancoma
p1829
aVjaedi
p1830
aVbrunchlftm
p1831
aVhonalove
p1832
aVmygirl2797
p1833
aViamquadr
p1834
aVkeymanjc
p1835
aVmila
p1836
aVesther220
p1837
aV10x4
p1838
aVbrunchflgu
p1839
aVsooscape
p1840
aVpinie
p1841
aVwonish
p1842
aVdalda
p1843
aVkkang
p1844
aVhitchwill
p1845
aVoeoechoi
p1846
aVpiux
p1847
aVchojeremy
p1848
aVrainbowbaby
p1849
aVjimin
p1850
aVourlove
p1851
aVsuhanjang
p1852
aVeujinnhong
p1853
aVflytosky1117
p1854
aVyoon
p1855
aVpapa
p1856
aVjinkieun
p1857
aVperytail
p1858
aVbrunch
p1859
assVhonggun008
p1860
(dp1861
g5
(lp1862
Vgoodvc78
p1863
aVbrunch
p1864
assVbrunch3qhe
p1865
(dp1866
g5
(lp1867
Vgoodvc78
p1868
aVbrunchflgu
p1869
aVinsuk
p1870
aVlifidea
p1871
aVbwcho75
p1872
aVbrunch
p1873
assVjaeyongjang
p1874
(dp1875
g5
(lp1876
Vstillalive31
p1877
aVsshong
p1878
aVgoodvc78
p1879
aVbrunchflgu
p1880
aVmanya
p1881
aVwjchee
p1882
aVinsuk
p1883
aVsuhanjang
p1884
aVjsksoft
p1885
aVjangnoah
p1886
aVhojunna
p1887
aVihearyou
p1888
aVbrunchlftm
p1889
aVbrunch
p1890
assVpomp0000
p1891
(dp1892
g5
(lp1893
Vaidenswmo
p1894
aVjaeyeonkim
p1895
aVgoodvc78
p1896
aVcojette
p1897
aVcloud09
p1898
aVplatum
p1899
aVmushman
p1900
aVjade
p1901
aVipuris
p1902
aVngelmaum
p1903
aVbrunch4nrs
p1904
aVfutureshaper
p1905
aV1yearholiday
p1906
aVpromise4u
p1907
aVbreakthrough
p1908
aVdohyunkim
p1909
aVstevepark
p1910
aVpauljangnyz2
p1911
aVgenie7pe
p1912
aVlifidea
p1913
aVyoonash
p1914
aVsophie89
p1915
aVsshong
p1916
aVsuhanjang
p1917
aVjimmyrim
p1918
aVbrunchlftm
p1919
aVoeoechoi
p1920
aV95kimik
p1921
aVyoungwungkim
p1922
aVwadizhib
p1923
aVglosh721
p1924
aVyongjinjinipln
p1925
aVbinjis
p1926
aVbrunch
p1927
assVbrunchlaul
p1928
(dp1929
g5
(lp1930
Vmissingmay
p1931
aVyonghheo
p1932
aVcojette
p1933
aVmadvirus
p1934
aVgoodvc78
p1935
aVcayden
p1936
aVibare
p1937
aVkkonal
p1938
aVlifidea
p1939
aVwodory
p1940
aVyannheo
p1941
aVsunnysideup
p1942
aVbrunch
p1943
assVjjune0412
p1944
(dp1945
g5
(lp1946
Vgoodvc78
p1947
aVbrunch
p1948
assVbrunchw2ia
p1949
(dp1950
g5
(lp1951
Vlegend
p1952
aVsabumbyun
p1953
aVdugi
p1954
aVsophia5787
p1955
aVjinsoo1eas
p1956
aVsungjoonnam
p1957
aVchoihs0228
p1958
aVcreativejuwon
p1959
aVgoodvc78
p1960
aVdavidsr
p1961
aVkuehyunpark
p1962
aVymlee
p1963
aVimagineer
p1964
aVchaeminc
p1965
aVmobiinside
p1966
aVfutureagent
p1967
aVcloud09
p1968
aVyooobing
p1969
aVaidenswmo
p1970
aVbrunchmpto
p1971
aVbreakthrough
p1972
aVcojette
p1973
aVyoojs8512
p1974
aVjbbae
p1975
aVlifidea
p1976
aVjimmyrim
p1977
aVbrunch
p1978
assVsean
p1979
(dp1980
g5
(lp1981
Vjsksoft
p1982
aVdanielk
p1983
aVscottim
p1984
aVjeremycho
p1985
aVsanghoonpak
p1986
aVgoodvc78
p1987
aVsnowyn
p1988
aVkellyluvmore
p1989
aVtuburkis
p1990
aVchina
p1991
aVjinsoo1eas
p1992
aVmrtint
p1993
aVlifidea
p1994
aVdigipubkorea
p1995
aVeomtank
p1996
aVstevehan
p1997
aVimagineer
p1998
aVtsp
p1999
aVjwj0416
p2000
aVnim2mei9l3
p2001
aVjazznclimb
p2002
aVymlee
p2003
aVdbr
p2004
aViyagikot
p2005
aVinternomago
p2006
aVceo4
p2007
aVridibooks
p2008
aVbyyym3608
p2009
aVchooba
p2010
aVleedonggun
p2011
aVpigs
p2012
aVanyria
p2013
aVsktelecomco
p2014
aVyoonash
p2015
aVkakaoux
p2016
aVjoohoonjake
p2017
aVbrunchjqcb
p2018
aVbookdb
p2019
aVsabumbyun
p2020
aVaem84
p2021
aVraekim
p2022
aVtechsuda
p2023
aVhyosha
p2024
aVcysstory
p2025
aVprorange
p2026
aVthebookman
p2027
aVgreenful
p2028
aVzamong
p2029
aVteam-slogup
p2030
aValleciel
p2031
aVihearyou
p2032
aVbrunch
p2033
aVkkonal
p2034
aVyper
p2035
aVshoostory
p2036
aVarambaek
p2037
aVjinhyunpark
p2038
aVbangzi
p2039
aVkwihun80
p2040
aVansyd
p2041
aVbreezynodul
p2042
aVmonofive55
p2043
aVherrenail
p2044
aVconnectart
p2045
aVbwcho75
p2046
aVyannheo
p2047
aVsooscape
p2048
aVhmin0606
p2049
aVsapu0000
p2050
aVjihere1001
p2051
aVsuyoung
p2052
aVbrunch6tjq
p2053
aVplatum
p2054
aVmobiinside
p2055
aVspeedlyh
p2056
aVlucidfall
p2057
aVitsooda
p2058
aVkakaoprivacy
p2059
aVmushman
p2060
aVryanmoon83
p2061
aVbrunch4nrs
p2062
aVqsfamily
p2063
aVkaldokim
p2064
aVwikitree
p2065
aVkimkwangho
p2066
aVbreakthrough
p2067
aVwjchee
p2068
aVmicamica199
p2069
aVgfsaham
p2070
aVbrunch4zlk
p2071
aVjangnoah
p2072
aVsclplus
p2073
aVkkang
p2074
aVcosmos-j
p2075
aVoyeoye
p2076
aVjmh5531
p2077
aVjaeseungmun
p2078
aVkooning11
p2079
aVbrunchrl8a
p2080
aVhwanheeryu
p2081
aVgrowingmom
p2082
aVsophyntaste
p2083
aValwaysjh0602
p2084
aVmarsnine
p2085
aVflytosky1117
p2086
aVlusey
p2087
aVsoonkyujang
p2088
aVclinky85
p2089
aVskybam2012
p2090
aVhope-stone
p2091
aVsustainlife
p2092
aVframingtheworld
p2093
aVchanjin
p2094
aVoeoechoi
p2095
aVsuhanjang
p2096
aVplatina02
p2097
aVjimmyrim
p2098
aVjihoonjeong
p2099
aVdohyunkim
p2100
aVjiyoungcbzd
p2101
aVmarseilleu
p2102
aVsemihip7
p2103
aVeonr123
p2104
aVjongsunyoo
p2105
aVsunkyoungch
p2106
aVyeinz
p2107
aVkeymanjc
p2108
aVtinyhippostory
p2109
aVyunjungseo
p2110
aVpromise4u
p2111
aVpiux
p2112
aVzagmaster
p2113
aVyourboyhood
p2114
aVgungcho0520
p2115
aVebs
p2116
aVsfac
p2117
aVyeunni2
p2118
aVannejeong
p2119
aVhcyoon
p2120
aVmeca
p2121
aVhye-xx
p2122
aVjuyong
p2123
aVsonasona
p2124
aVbrunchwwo
p2125
aVnewlyricist
p2126
aVzsst
p2127
aVyangsungmin
p2128
aVcataglyphis
p2129
aVdalda
p2130
aVkrazyeom
p2131
aVdad
p2132
aVshixicheng
p2133
aVjigjang
p2134
aVafterworkdj
p2135
aVyyja
p2136
aVmatt
p2137
aVyaeegi
p2138
aVvislakr
p2139
aVparcchanyong
p2140
aVillumi33
p2141
aVeundang
p2142
aVyoojs8512
p2143
aVonec
p2144
aVitgreem
p2145
aVstillalive31
p2146
aVgalleryd
p2147
aViffu
p2148
aVchancalli
p2149
aVnatu84
p2150
aVgreenpeacekorea
p2151
aVyeonjikim
p2152
aV2kija
p2153
aVjayoclock
p2154
aVparkhyungsik
p2155
aVyeonboon
p2156
aVyoonjikwon
p2157
aVmeanimize
p2158
aViamquadr
p2159
aVpapa
p2160
aVhomoartcus
p2161
aVtcatkr
p2162
aVberlinbitte
p2163
aVimadorable
p2164
aVpeterjung
p2165
aVjino
p2166
aVyellowid
p2167
aVpsspsshi
p2168
aV20timeline
p2169
aVnotefolio
p2170
aVhonalove
p2171
aVhyejinchoi
p2172
aVhancoma
p2173
aVbloggertip
p2174
aVbohemtic
p2175
aVkimmincheol
p2176
aVtodayfootball
p2177
aVblade31
p2178
aVwhiteink
p2179
aVdaljasee
p2180
aVthdamthdam
p2181
aVeastgo
p2182
aVloveinsight
p2183
aVperytail
p2184
aVmistyfriday
p2185
aVeasygo
p2186
aVbrunchykx
p2187
aVkimminsoo
p2188
aVnonie1
p2189
aVkimkwan
p2190
aVcourbet
p2191
aVbrunchk5fv
p2192
aVwhatisnext
p2193
aVonlymisato
p2194
aVdn5445
p2195
aVmiyoungbaek
p2196
aVborashow
p2197
aVseanpyo
p2198
aVyoon
p2199
aVdsuh
p2200
aVvirgin0909
p2201
aVbabydiary
p2202
aVnoonmoonzine
p2203
aVlumafonto
p2204
aVksk3895
p2205
aVgakju
p2206
aVswizzle
p2207
aVbrunch30
p2208
aVfiveing
p2209
aVdeleuze
p2210
aVseoul
p2211
aVunicefkcu
p2212
aVwoong0731
p2213
aVpowerblog
p2214
aVdefine
p2215
aVlonelyplanet
p2216
aVinsookdream
p2217
aVpsykiest
p2218
aVmangococo
p2219
aVthecommaa
p2220
aViamfineandyou
p2221
aVyuhanrox
p2222
aVnewsroom
p2223
aVromanticgrey
p2224
aVleenouy
p2225
aVwritingo119
p2226
aVstarfirm
p2227
aVjin
p2228
aVseoulgrandma
p2229
aVmobizenpekr
p2230
aVcvision33
p2231
aVmuryangg
p2232
aVrosa
p2233
aVmanya
p2234
aVdiem
p2235
aVday
p2236
aVpxdstory
p2237
aVfilm-art
p2238
aVboramkim
p2239
aVchanny
p2240
aVparkpd4021
p2241
aVwanleehani
p2242
aVbumjinyun
p2243
aVshinjongyun
p2244
aVd123r34
p2245
aVminam
p2246
aVrestday
p2247
aVhwaada
p2248
aVjaedi
p2249
aVjraymundus
p2250
aVmotorcycle
p2251
aV19831011
p2252
aVsongsoon
p2253
aVmsfkorea
p2254
aVmelo
p2255
aVsiso
p2256
aVbrunchw9hw
p2257
aVtinydova
p2258
aVbrunch8m3s
p2259
aVhwangja
p2260
aVsigol
p2261
aVhabit
p2262
aVdauac
p2263
aVholic
p2264
aVjean
p2265
aVwigiri
p2266
aVoreoangela
p2267
aVmyungjinjun
p2268
aVbanghaklife
p2269
aVartkee
p2270
aVsana2p
p2271
aVdono
p2272
aVhanulaby
p2273
aVjejugrapher
p2274
aVstorytailor
p2275
aVjimin
p2276
aVblackh
p2277
aVcsj3814
p2278
aVtornpaper
p2279
aVamber
p2280
aVkid
p2281
aVwelcomeban
p2282
aVmarcel
p2283
aVcheese
p2284
aVzerohour
p2285
aVuzoozoo
p2286
aVamelie
p2287
aVpitapat
p2288
aVseonmichoi
p2289
aVgladysjung
p2290
aVmaialeelg2o
p2291
aVjypark
p2292
aVwinter
p2293
aVcoffee
p2294
aVlol
p2295
aVcloud
p2296
aVkimheekyunguq0d
p2297
aVkean
p2298
aVzazzseo
p2299
aVandante8624
p2300
aVpaper
p2301
aVactiondirect
p2302
aVdddd
p2303
aVseungwanhon
p2304
aVtina337
p2305
aVunitasbrand
p2306
aVhowweare
p2307
aVjessikim
p2308
aVleeyoojin
p2309
aVbeatto
p2310
aVjeju
p2311
aVbang1999
p2312
aVstudiosagigoon
p2313
aVsweetheart
p2314
aVssun
p2315
aVjazzsnobs
p2316
aVbegintalk
p2317
aVshochan
p2318
aVdewey
p2319
aVwriter
p2320
aVwhaletreeking
p2321
aVyirgachefe
p2322
aVgapyear
p2323
aVhyonee
p2324
aVtampopo
p2325
aVhan
p2326
aVgretta
p2327
aVryan
p2328
aVjinsupark
p2329
aVartisker
p2330
aVminieetea
p2331
aVbelle
p2332
aVtoystory
p2333
aVbackpacker
p2334
aVjongmin
p2335
aVspring
p2336
aVjade
p2337
aVsexyguy
p2338
aVbabosamo
p2339
aVvoid
p2340
aVara
p2341
aVparang
p2342
aVjoostory
p2343
aVprayise
p2344
aVyongjinjinipln
p2345
aVdelius
p2346
aVsadrove
p2347
aVyeda
p2348
aVjbbae
p2349
aVophilia
p2350
aVtorynara
p2351
aVdwaykang
p2352
aValice
p2353
aVjulie
p2354
aVkisook
p2355
aVelsahime
p2356
aVsample
p2357
aVdrawnote
p2358
aVevelina
p2359
aVluciedream
p2360
aVihappykjmrjp
p2361
aVasrada
p2362
aVelijah
p2363
aVdaeheejang
p2364
aVsally
p2365
aVray
p2366
aVeugene
p2367
assVstanley
p2368
(dp2369
g5
(lp2370
Vsupims
p2371
aVgoodvc78
p2372
aVsuyoung
p2373
aVsapu0000
p2374
aVhaneulalice
p2375
aVmeca
p2376
aVmyte
p2377
aVjihoonjeong
p2378
aVmadvirus
p2379
aVbrunchk0qq
p2380
aVshala
p2381
aVboramkim
p2382
aVwjchee
p2383
aVyongjinjinipln
p2384
aVjsksoft
p2385
aVmobiinside
p2386
aVnachoclub
p2387
aVlifidea
p2388
aVyoojs8512
p2389
aVjimmyrim
p2390
aVbrunch
p2391
assVbrunchvejx
p2392
(dp2393
g5
(lp2394
Vgoodvc78
p2395
aVbwcho75
p2396
aVjnbells
p2397
aVajmind
p2398
aVjaehyunkim
p2399
aVbreakthrough
p2400
aVbrunch
p2401
assVltj880305
p2402
(dp2403
g5
(lp2404
Vgoodvc78
p2405
aVteheranfreedom
p2406
aVspeedlyh
p2407
aVsapu0000
p2408
aVyunjungseo
p2409
aVjimmyrim
p2410
aVmeanimize
p2411
aVsooscape
p2412
aVsuyoung
p2413
aVbrunch
p2414
assVdigshock
p2415
(dp2416
g5
(lp2417
Vplaydeep
p2418
aVlifidea
p2419
aVvogue127
p2420
aVcaptaink
p2421
aVjimmyrim
p2422
aVgoodvc78
p2423
aVinsuk
p2424
aVyper
p2425
aValden
p2426
aVcleancode
p2427
aVbrunch
p2428
assVwmzksem
p2429
(dp2430
g5
(lp2431
Vbrunchykx
p2432
aVlimelite
p2433
aVgoodvc78
p2434
aVeejsung
p2435
aVcamomile
p2436
aVkangjak
p2437
aVsustainlife
p2438
aVwater-dragon
p2439
aVbrunch5sru
p2440
aVpeony
p2441
aVkmin
p2442
aVgunbbang
p2443
aVyonghheo
p2444
aVfutureagent
p2445
aVreeteacher
p2446
aVnpulen
p2447
aVkotani4
p2448
aVintranet
p2449
aVdalda
p2450
aVyudong
p2451
aVtaebarii
p2452
aVmaumdal
p2453
aVrothem
p2454
aVyoonash
p2455
aVbrunchflgu
p2456
aVknockknock
p2457
aVbrunch
p2458
assVring801112
p2459
(dp2460
g5
(lp2461
Vlifidea
p2462
aVgoodvc78
p2463
aVbrunch
p2464
assVlifidea
p2465
(dp2466
g5
(lp2467
Vscottim
p2468
aVfuturewave
p2469
aVcoudinky
p2470
aVbrunchv6ea
p2471
aVeomtank
p2472
aVpelexus
p2473
aVyper
p2474
aVingcca
p2475
aVjaeyeonkim
p2476
aVcindyboramlee
p2477
aV4u4u
p2478
aVkoreajb
p2479
aVhstyle84
p2480
aVcaptaink
p2481
aVgroovetube
p2482
aVwonish
p2483
aVjirehhouse
p2484
aVgoodvc78
p2485
aVherosoob
p2486
aVtennistory
p2487
aVvijay
p2488
aVbrunchjnux
p2489
aVzone
p2490
aVbabydiary
p2491
aVmygirl2797
p2492
aVmonofive55
p2493
aVchaibschaibs
p2494
aVmakersgonnamake
p2495
aVgungs
p2496
aV20timeline
p2497
aVpletalk
p2498
aVyggdrasil
p2499
aVinsuk
p2500
aVseattle
p2501
aVjoohoonjake
p2502
aVcafesmith
p2503
aVjinju32
p2504
aVjsksoft
p2505
aVdavidyoon
p2506
aVcloud09
p2507
aVgogamza
p2508
aVbrunch6tjq
p2509
aVwherevermis
p2510
aVyonghheo
p2511
aVollein
p2512
aVhomoartcus
p2513
aVamyyoungah
p2514
aVparcchanyong
p2515
aVmeanimize
p2516
aVhyejinchoi
p2517
aVvioletcloud
p2518
aVborashow
p2519
aVloveinsight
p2520
aVtestude
p2521
aVxenix
p2522
aVjmh5531
p2523
aVshoostory
p2524
aVngelmaum
p2525
aVseungwanhon
p2526
aVsteven
p2527
aVhoonyqqq
p2528
aVbrunchdhqp
p2529
aVaboutheman
p2530
aVthecommaa
p2531
aVyujunsang
p2532
aVbrunchk0qq
p2533
aVlllshotlll
p2534
aVstopfornow
p2535
aVdocumenticle
p2536
aVnyfashionbiz
p2537
aVsonasona
p2538
aVvogue127
p2539
aVdooholee
p2540
aVprorange
p2541
aVbookdb
p2542
aVdalmoon
p2543
aVpeterpens
p2544
aVstevenyoo
p2545
aVseiweb
p2546
aVroseroad
p2547
aVkne
p2548
aVsunnysideup
p2549
aVhannapark
p2550
aVblade31
p2551
aVtodayfootball
p2552
aVmrkwondo
p2553
aVnajakaya
p2554
aVyooatic84
p2555
aVkwihun80
p2556
aVsoyoungkim
p2557
aVjinnyjieunk
p2558
aVjaeseungmun
p2559
aVjinkieun
p2560
aVskpman
p2561
aVscape
p2562
aVuincity
p2563
aVkangjak
p2564
aVcsj3814
p2565
aVcivil
p2566
aVjejugrapher
p2567
aVmila
p2568
aVhmin0606
p2569
aVbrunchflgu
p2570
aVjungyoon
p2571
aVyeinz
p2572
aVchataehyeon
p2573
aVsanghwasong
p2574
aVsustainlife
p2575
aVhope-stone
p2576
aVpromise4u
p2577
aVhaneulalice
p2578
aVfoodenjoy
p2579
aV909090k
p2580
aVbreakthrough
p2581
aVihearyou
p2582
aVbeatto
p2583
aVgamenext
p2584
aVsangwonsuh
p2585
aV1yearholiday
p2586
aVdaljasee
p2587
aVckjung
p2588
aVstarskylight
p2589
aVopri
p2590
aVyeunni2
p2591
aVgayoungpark
p2592
aVguxist
p2593
aVjumankim
p2594
aVlonelyplanet
p2595
aVshixicheng
p2596
aVtornpaper
p2597
aVjihoonjeong
p2598
aVcvision33
p2599
aVcli-annah
p2600
aVshala
p2601
aVchoikyunghe
p2602
aVmatthew-chang
p2603
aVjongsiksong
p2604
aVjangnoah
p2605
aVtaebarii
p2606
aVbo0
p2607
aVkkang
p2608
aVtschoe56
p2609
aVeastgo
p2610
aVtourister
p2611
aVyoonash
p2612
aVpiux
p2613
aVmarsnine
p2614
aV2kija
p2615
aVyyja
p2616
aV1000ml
p2617
aVdsunbee
p2618
aVrothem
p2619
aV5345341
p2620
aVcojette
p2621
aVfromairplane
p2622
aVbrunchxecm
p2623
aVmeca
p2624
aVdol74
p2625
aVartmerchant
p2626
aVgoodman1235
p2627
aVmyungjae7
p2628
aVmobiinside
p2629
aVwjchee
p2630
aVglosh721
p2631
aVsiliconroad
p2632
aVsadrove
p2633
aVkrazyeom
p2634
aVdsuh
p2635
aVgisoopa
p2636
aVfunder2000
p2637
aVmixcoffee
p2638
aVjoonomics
p2639
aVson6336
p2640
aVsuyoung
p2641
aVreading15m
p2642
aVsoonkyujang
p2643
aVmissingmay
p2644
aVmyte
p2645
aVmyungjinjun
p2646
aVsophie89
p2647
aVyongjinjinipln
p2648
aVbinjis
p2649
aV95kimik
p2650
aVyoungwungkim
p2651
aVwadizhib
p2652
aVjbbae
p2653
aVmicamica199
p2654
aVhyunkimkr
p2655
aVmadlymissyou
p2656
aVdonothing
p2657
aVyoojs8512
p2658
aVsuhanjang
p2659
aVhogeunyum
p2660
aVsshong
p2661
aVbrunch
p2662
assVzzubbix2
p2663
(dp2664
g5
(lp2665
Veastrain
p2666
aValden
p2667
aVjobhelping
p2668
aVgoodvc78
p2669
aVfunder2000
p2670
aVbwcho75
p2671
aVhop2go
p2672
aVinsuk
p2673
aVbrunch
p2674
assVoscary96u
p2675
(dp2676
g5
(lp2677
Vstarskylight
p2678
aVsundog
p2679
aVgoodvc78
p2680
aVondisplay
p2681
aVbrunch
p2682
assVbrunch2yx3
p2683
(dp2684
g5
(lp2685
Vtroicacho
p2686
aVhstyle84
p2687
aVcaptaink
p2688
aVgoodvc78
p2689
aVgunbbang
p2690
aVjihoonjeong
p2691
aVbabydiary
p2692
aVplusclov
p2693
aVjungkwon-ahn
p2694
aVthebetterday
p2695
aVbreakthrough
p2696
aVmitpiki
p2697
aVvijay
p2698
aVindilab
p2699
aVinsuk
p2700
aVnitro2red
p2701
aVbyungmookkim
p2702
aVyper
p2703
aVstevenh
p2704
aVmisunkim
p2705
aVhongpro7
p2706
aVwhy
p2707
aVtoriteller
p2708
aVgfsaham
p2709
aVbyeongjinje
p2710
aVyannheo
p2711
aVwherevermis
p2712
aVwanleehani
p2713
aVmatt
p2714
aVdpinkie
p2715
aVbang1999
p2716
aVmegaonic
p2717
aVxmaskid
p2718
aVrhee1957
p2719
aVitsooda
p2720
aVsunnysideup
p2721
aVsongcine
p2722
aVsuyoung
p2723
aVwo-motivator
p2724
aVlllshotlll
p2725
aVjustgo
p2726
aVbodeum
p2727
aVprorange
p2728
aVchanjaipuwa
p2729
aVksw3182
p2730
aVtschoe56
p2731
aVhoyoungchoi
p2732
aVrats
p2733
aVmobiinside
p2734
aVpyossi
p2735
aVjoshuajr
p2736
aVbrunchflgu
p2737
aVhaneulalice
p2738
aVaboutheman
p2739
aVmanya
p2740
aVeliotkang
p2741
aVpeterpens
p2742
aVbrunchvvlh
p2743
aVsuhanjang
p2744
aVbrunch
p2745
assVbrunchbifj
p2746
(dp2747
g5
(lp2748
Vgoodvc78
p2749
aVjsyoo525
p2750
aVyper
p2751
aVlifidea
p2752
aVpelexus
p2753
aVhaeegri
p2754
aVtechhtml
p2755
aVplatum
p2756
aVkkonal
p2757
aVyongjinjinipln
p2758
aVpromise4u
p2759
aVhaneulalice
p2760
aVyoojs8512
p2761
aVnuribit
p2762
aVstevepark
p2763
aVmyte
p2764
aVjeffpaik
p2765
aVryanmoon83
p2766
aVbrunch
p2767
assVcarvehomes
p2768
(dp2769
g5
(lp2770
Vmarsnine
p2771
aVonec
p2772
aVjumjan
p2773
aVinsuk
p2774
aVtsp
p2775
aVdobedobedo
p2776
aVcreativejuwon
p2777
aVclinky85
p2778
aVpelexus
p2779
aVgoodvc78
p2780
aVcysstory
p2781
aVquane
p2782
aVmeanimize
p2783
aVbrunchjnux
p2784
aVhyosha
p2785
aVsabumbyun
p2786
aVbrunch
p2787
assVjang8474
p2788
(dp2789
g5
(lp2790
Vgoodvc78
p2791
aVmadvirus
p2792
aVcleancode
p2793
aVmyte
p2794
aVsuhanjang
p2795
aVbrunch
p2796
assVbrunchezwn
p2797
(dp2798
g5
(lp2799
Vhellokangda
p2800
aVchaibschaibs
p2801
aVdugi
p2802
aVgoodvc78
p2803
aVimagineer
p2804
aVmissingmay
p2805
aVvijay
p2806
aVtechsuda
p2807
aVtechhtml
p2808
aVinsuk
p2809
aVcojette
p2810
aVjinkieun
p2811
aVshoostory
p2812
aVyannheo
p2813
aVsadrove
p2814
aVsuhanjang
p2815
aVmobiinside
p2816
aVsuyoung
p2817
aVyoojs8512
p2818
aVjoohoonjake
p2819
aVkkonal
p2820
aVlifidea
p2821
aVtschoe56
p2822
aVkozzangnim
p2823
aVmatthew-chang
p2824
aVsunnysideup
p2825
aVhannewa
p2826
aVhaneulalice
p2827
aVbrunch
p2828
assVgudokim
p2829
(dp2830
g5
(lp2831
Veunwoopark
p2832
aVeomtank
p2833
aVpelexus
p2834
aVgoodvc78
p2835
aVxianglai
p2836
aVjimmyrim
p2837
aVmarsnine
p2838
aVyoojs8512
p2839
aVbreakthrough
p2840
aVlifidea
p2841
aVpromise4u
p2842
aVsong720
p2843
aVyper
p2844
aVnohitall
p2845
aVjihoonjeong
p2846
assVkingmbc
p2847
(dp2848
g5
(lp2849
Vyonghheo
p2850
aVgogamza
p2851
aVgoodvc78
p2852
aVtechhtml
p2853
aVlifidea
p2854
aVpelexus
p2855
aVaidenswmo
p2856
aVstevepark
p2857
aVbrunch4nrs
p2858
aVinsuk
p2859
aVbrunch
p2860
assVspinoza79
p2861
(dp2862
g5
(lp2863
Vgoodvc78
p2864
aVbrunch6tjq
p2865
aVihearyou
p2866
aVgomtaewoo
p2867
aVansyd
p2868
aVcamomile
p2869
aVintranet
p2870
aVsnowcountry
p2871
aVartmerchant
p2872
aVbrunch
p2873
assVaeterkhan
p2874
(dp2875
g5
(lp2876
Vsunsutu
p2877
aVgoodvc78
p2878
aVsnowcountry
p2879
aVplusclov
p2880
aVjmh5531
p2881
aVhead77x
p2882
aVbrunch
p2883
assVbrunchlc0o
p2884
(dp2885
g5
(lp2886
Vchaibschaibs
p2887
aVreadmoney
p2888
aVceo4
p2889
aV4u4u
p2890
aVgoodvc78
p2891
aVjamess
p2892
aVzip
p2893
aVdangsandage
p2894
aVmanya
p2895
aVplatum
p2896
aVcpa1997
p2897
aVsabumbyun
p2898
aVhyosha
p2899
aVyper
p2900
aVjsksoft
p2901
aViammento
p2902
aVyannheo
p2903
aVchan
p2904
aVspeedlyh
p2905
aVsapu0000
p2906
aVmeanimize
p2907
aVsooscape
p2908
aVwanleehani
p2909
aVnitro2red
p2910
aVflatdesign
p2911
aVamyyoungah
p2912
aVyunjungseo
p2913
aVmushman
p2914
aVskyscanner
p2915
aVjihere1001
p2916
aVkatetalks
p2917
aViffu
p2918
aVnachoclub
p2919
aVnanta23
p2920
aVdooilkim
p2921
aVsuyoung
p2922
aV8percent
p2923
aVtornpaper
p2924
aVrefreshstudio
p2925
aVplatina02
p2926
aVmobiinside
p2927
aVbrunchflgu
p2928
aVjongsiksong
p2929
aVyoojs8512
p2930
aVmobizenpekr
p2931
aVbeautytech
p2932
aVsclplus
p2933
aVjinju32
p2934
aVconamss
p2935
aVkkonal
p2936
aVjimmyrim
p2937
aVmynezz
p2938
aVnewsquare
p2939
aVhmin0606
p2940
aVbeatbluejoo
p2941
aVborashow
p2942
aVlllshotlll
p2943
aVbrunch
p2944
assVnuribit
p2945
(dp2946
g5
(lp2947
Vgoodvc78
p2948
aVdbr
p2949
aVmushman
p2950
aVbrunchjqcb
p2951
aVsuomi
p2952
aVnergul01
p2953
aVyannheo
p2954
aVborashow
p2955
aViamsonge
p2956
aVpromise4u
p2957
aVyoonash
p2958
aVjeffpaik
p2959
aVyoojs8512
p2960
aVsshong
p2961
aVjimmyrim
p2962
aVbrunch
p2963
assVkanghyunjun
p2964
(dp2965
g5
(lp2966
Vpaige
p2967
aVkoreajb
p2968
aVgoodvc78
p2969
aVhaeegri
p2970
aVwjchee
p2971
aVcojette
p2972
aVplatum
p2973
aVchaibschaibs
p2974
aVmang
p2975
aVkooning11
p2976
aVintotibet
p2977
aVlifidea
p2978
aVhcyoon
p2979
aVbrunch3dsf
p2980
aVhmin0606
p2981
aVblade31
p2982
aVcataglyphis
p2983
aVyeonjikim
p2984
aVpxdstory
p2985
aVbrunch
p2986
assVbrunchohju
p2987
(dp2988
g5
(lp2989
Vsnobberys
p2990
aVdaeheejang
p2991
aVridibooks
p2992
aVtourism
p2993
aVaidenswmo
p2994
aVkoreajb
p2995
aVtaebarii
p2996
aVsunsutu
p2997
aVskumac
p2998
aVbabydiary
p2999
aVgoodvc78
p3000
aVbookdb
p3001
aVyper
p3002
aVneddaland
p3003
aVinsuk
p3004
aVwo-motivator
p3005
aVhyejinchoi
p3006
aVimagineer
p3007
aVhomoartcus
p3008
aVjoyjun7
p3009
aVkwihun80
p3010
aVhabit
p3011
aVyannheo
p3012
aVmissj1227
p3013
aVgoodbyepain
p3014
aVhead77x
p3015
aVmobiinside
p3016
aVsustainlife
p3017
aVsuyoung
p3018
aVyoonjikwon
p3019
aVgreenpeacekorea
p3020
aVfunder2000
p3021
aVbrunch4nrs
p3022
aVroseroad
p3023
aVyoojs8512
p3024
aVcaptaink
p3025
aV8percent
p3026
aVsfac
p3027
aVhaneulalice
p3028
aVcojette
p3029
aVcjphynmu
p3030
aVstevepark
p3031
aVsapu0000
p3032
aVlifidea
p3033
aVanglla
p3034
aVcleancode
p3035
aVrothem
p3036
aVmyte
p3037
aVcli-annah
p3038
aVsuhanjang
p3039
aVihearyou
p3040
aVbrunchlftm
p3041
aVbrunch
p3042
assVjhbaek
p3043
(dp3044
g5
(lp3045
Vdugi
p3046
aVchaibschaibs
p3047
aVscottim
p3048
aVgoodvc78
p3049
aVaidenswmo
p3050
aVmobiinside
p3051
aVfive0203
p3052
aVjihere1001
p3053
aVmeanimize
p3054
aVspeedlyh
p3055
aVmushman
p3056
aVsuyoung
p3057
aVwjchee
p3058
aVswizzle
p3059
aVpubjinson
p3060
aVreadmoney
p3061
aVmila
p3062
aVsapu0000
p3063
aVjoonomics
p3064
aVlifidea
p3065
aVgenie7pe
p3066
aValden
p3067
aVcli-annah
p3068
aVsshong
p3069
aVjimmyrim
p3070
aVborashow
p3071
aVsuhanjang
p3072
aVbrunchlftm
p3073
aVminieetea
p3074
aVyeinz
p3075
aVjejugrapher
p3076
aVcleancode
p3077
aVyoojs8512
p3078
aVklaus
p3079
aVarchicwy
p3080
aVgoodbyepain
p3081
aVlllshotlll
p3082
aViamquadr
p3083
aVnitro2red
p3084
aVjigjang
p3085
assVjslivane
p3086
(dp3087
g5
(lp3088
Vgoodvc78
p3089
aVbrunch
p3090
assVnullz
p3091
(dp3092
g5
(lp3093
Vingcca
p3094
aVlifidea
p3095
aVkoreajb
p3096
aVgoodvc78
p3097
aVsooscape
p3098
aVollein
p3099
aVonec
p3100
aVmyte
p3101
aVjimmyrim
p3102
aVpetersohn
p3103
aVkeymanjc
p3104
aVkangjak
p3105
aVcsj3814
p3106
aV2kija
p3107
aVbong
p3108
aVara
p3109
aVkimjoohyuk
p3110
aVdiem
p3111
aVlondonyangpa
p3112
aVperytail
p3113
aVleenouy
p3114
aVsejinjeong
p3115
aVkkang
p3116
aVseungwanhon
p3117
aVcloud
p3118
aVborashow
p3119
aVnonie1
p3120
aVmadvirus
p3121
aVseoul
p3122
aVeugene
p3123
aVkudokun
p3124
aVmyungjinjun
p3125
aVbrunch
p3126
assVonsykim
p3127
(dp3128
g5
(lp3129
Vgoodvc78
p3130
aVbrunch
p3131
assVyounghojeon
p3132
(dp3133
g5
(lp3134
Vjaeholee
p3135
aVcreativejuwon
p3136
aVkooning11
p3137
aVgoodvc78
p3138
aVtakk
p3139
aVsclplus
p3140
aVlonelyplanet
p3141
aVstartupgemma
p3142
aVeditorialbe
p3143
aVromanticgrey
p3144
aVjnbells
p3145
aVhajunho
p3146
aVyoonash
p3147
aVseocat
p3148
aVnica0909
p3149
aVvaluedeveloper
p3150
aVseptemberfirst
p3151
aVajmind
p3152
aVwjchee
p3153
aVjoohoonjake
p3154
aVipuris
p3155
aVlyju7479
p3156
aVmicamica199
p3157
aVpromise4u
p3158
aVmadchick
p3159
aVsapu0000
p3160
aVcreativety
p3161
aVbrunch
p3162
assVmoragoyo
p3163
(dp3164
g5
(lp3165
Vgoodvc78
p3166
aVbrunch
p3167
assVhyunmismtw
p3168
(dp3169
g5
(lp3170
Vmyte
p3171
aVbwcho75
p3172
aVyonghheo
p3173
aVinsuk
p3174
aVgoodvc78
p3175
aVlifidea
p3176
aVimagineer
p3177
aVcojette
p3178
aVaidenswmo
p3179
aVbrunch
p3180
assVedgarbosungkim
p3181
(dp3182
g5
(lp3183
Vwootaklee
p3184
aVgoodvc78
p3185
aVmanya
p3186
aVbrunch
p3187
assVwanghyosun
p3188
(dp3189
g5
(lp3190
Vgoodvc78
p3191
aVgr8idea
p3192
aVrefreshstudio
p3193
aVyunjungseo
p3194
aVhmin0606
p3195
aVmeanimize
p3196
aVsooscape
p3197
aVsterdam
p3198
aVsuyoung
p3199
aVjimmyrim
p3200
aVbrunch
p3201
assVida0724
p3202
(dp3203
g5
(lp3204
Vteddybae
p3205
aVitsooda
p3206
aVawsomeobig
p3207
aVgoodvc78
p3208
aVpilseonjun
p3209
aVsunsutu
p3210
aVdalda
p3211
aVseunghyukgo
p3212
aVfromairplane
p3213
aVjuikkim
p3214
aVchancalli
p3215
aVbambyul
p3216
aVfscloud
p3217
aV20timeline
p3218
aValden
p3219
aVprayise
p3220
aVyujunsang
p3221
aVyangsungmin
p3222
aVleenouy
p3223
aVsadrove
p3224
aVjimin
p3225
aVhakduri
p3226
aVstudiosagigoon
p3227
aVpsspsshi
p3228
aVcloud
p3229
aVcourbet
p3230
aVrothem
p3231
aVdiem
p3232
aVbrunch
p3233
aVlonelyplanet
p3234
aVhcyoon
p3235
aVthecommaa
p3236
assVjiyoung9z1p
p3237
(dp3238
g5
(lp3239
Vaidenswmo
p3240
aVgoodvc78
p3241
aVjimmyrim
p3242
aVlifidea
p3243
aVcreativety
p3244
aVjihoonjeong
p3245
aVyoojs8512
p3246
aVbrunch
p3247
assVbrunchfkvp
p3248
(dp3249
g5
(lp3250
Vgoodvc78
p3251
aVmobiinside
p3252
aVgenie7pe
p3253
aVbrunch
p3254
assVimagineer
p3255
(dp3256
g5
(lp3257
Vc4u
p3258
aVchoihs0228
p3259
aVsupims
p3260
aVgoodvc78
p3261
aVlifidea
p3262
aVsapu0000
p3263
aVgenie7pe
p3264
aVhaneulalice
p3265
aVyoonash
p3266
aVpelexus
p3267
aVyper
p3268
aVdobedobedo
p3269
aVtechhtml
p3270
aVinsuk
p3271
aVilwoncoach
p3272
aVjmh5531
p3273
aVromanticgrey
p3274
aVyonghheo
p3275
aVbwcho75
p3276
aVseunghojung
p3277
aVbrunchlftm
p3278
aVmyte
p3279
aVseattle
p3280
aVbrunch4nrs
p3281
aVsuhanjang
p3282
aVcodepink
p3283
aVbrunch
p3284
assVbyignorance
p3285
(dp3286
g5
(lp3287
Vgoodvc78
p3288
aVyoonash
p3289
aVbrunch
p3290
assVtaekyungkim
p3291
(dp3292
g5
(lp3293
Vtyphoonk83
p3294
aVjeremycho
p3295
aVsungjoonnam
p3296
aVmanya
p3297
aVcreativejuwon
p3298
aVdavidsr
p3299
aVkkang
p3300
aVneddaland
p3301
aVdaljasee
p3302
aVyeunsookim
p3303
aVmr-kim
p3304
aVfutureagent
p3305
aVpelexus
p3306
aVgoodvc78
p3307
aVsnowyn
p3308
aVbrunch27uc
p3309
aVroh222
p3310
aVcreativity
p3311
aVmobiinside
p3312
aVfunfunhan
p3313
aVnachoclub
p3314
aVarambaek
p3315
aVjmh5531
p3316
aVjigjang
p3317
aVjaeholee
p3318
aVmyungjae7
p3319
aVjaeunyun
p3320
aVgenie7pe
p3321
aVbooktopia
p3322
aVjinkieun
p3323
aVjsksoft
p3324
aVjade
p3325
aVmobizenpekr
p3326
aVplatina02
p3327
aVjaydenkim
p3328
aVsuhanjang
p3329
aVwanleehani
p3330
aV2kija
p3331
aVyey1118
p3332
aVkkonal
p3333
aVprorange
p3334
aVchaeminc
p3335
aVjowlee
p3336
aVaboutheman
p3337
aVhaneulalice
p3338
aVkozzangnim
p3339
aVmean1000
p3340
aVsuomi
p3341
aVilwoncoach
p3342
aVajmind
p3343
aVjaedi
p3344
aVtaehoyoon
p3345
aVbowae
p3346
aVpromise4u
p3347
aVmicamica199
p3348
aVchoikop
p3349
aVsclplus
p3350
aVbreakthrough
p3351
aVjimmyrim
p3352
aVyoonash
p3353
aVartmerchant
p3354
aVjihoonjeong
p3355
aVjaeseungmun
p3356
aViwmind
p3357
aVyoojs8512
p3358
aVnanta23
p3359
aVkeymanjc
p3360
aVjino
p3361
aVbrunchlftm
p3362
aVbrunchflgu
p3363
aVsshong
p3364
aVbrunch
p3365
assVchajy815
p3366
(dp3367
g5
(lp3368
Vphilosophus
p3369
aVbrunchflgu
p3370
aVgoodvc78
p3371
aVinsuk
p3372
aVbrunch
p3373
assVwjchee
p3374
(dp3375
g5
(lp3376
Vgoodvc78
p3377
aVoutofmap
p3378
aVbrunchjqcb
p3379
aViwmind
p3380
aVtornpaper
p3381
aVjimmyrim
p3382
aVsanghunchae
p3383
aVfeelgdi
p3384
aVlitandthink
p3385
aVmistyfriday
p3386
assVjinhakkim
p3387
(dp3388
g5
(lp3389
Vethobisx
p3390
aVdobedobedo
p3391
aVmarsnine
p3392
aVsbcoba
p3393
aVtestude
p3394
aVjaeyeonkim
p3395
aVgoodvc78
p3396
aVsunsutu
p3397
aVyonghheo
p3398
aVhaneulalice
p3399
assVfritzkim
p3400
(dp3401
g5
(lp3402
Vwjchee
p3403
aVgoodvc78
p3404
aVinsuk
p3405
aVjihere1001
p3406
aVyunjungseo
p3407
aVmobizenpekr
p3408
aVbeautytech
p3409
aVsecondlyrics
p3410
aVhancoma
p3411
aVjihoonjeong
p3412
aVbrunch
p3413
assVromad61an
p3414
(dp3415
g5
(lp3416
Vgoodvc78
p3417
aVklaus
p3418
aVborashow
p3419
aVyannheo
p3420
aVlifidea
p3421
aVbrunchflgu
p3422
aVbrunch
p3423
assVjephrix
p3424
(dp3425
g5
(lp3426
Vwikitree
p3427
aVkyeongwook-ma
p3428
aVsupims
p3429
aVsshong
p3430
aVgoodvc78
p3431
aVhajunho
p3432
aVyper
p3433
aVhead77x
p3434
aVkoreajb
p3435
aVjamding
p3436
aVarawn
p3437
aVcailhuiris
p3438
aVibare
p3439
aVmanya
p3440
aValden
p3441
aVtechhtml
p3442
aVyoonash
p3443
aVinsuk
p3444
aVimagineer
p3445
aVbwcho75
p3446
aVihearyou
p3447
aVyannheo
p3448
aV2691999
p3449
aVvytlgud
p3450
aVguxist
p3451
aVyoonjikwon
p3452
aVkkonal
p3453
aV2kija
p3454
aVcleancode
p3455
aVjinkieun
p3456
aV1yearholiday
p3457
aVmicamica199
p3458
aVsuhanjang
p3459
aVromanticgrey
p3460
aVtuburkis
p3461
aV1100px
p3462
aVwhiteink
p3463
aVlonelyplanet
p3464
aVeastrain
p3465
aVfromairplane
p3466
aVbrunch
p3467
assVyourbestkim
p3468
(dp3469
g5
(lp3470
Vsclplus
p3471
aVdukelung
p3472
aVchoihs0228
p3473
aVmiragedh
p3474
aVgoodvc78
p3475
aViammento
p3476
aVeomtank
p3477
aVdatasciencedude
p3478
aVnuribit
p3479
aVdondonjang
p3480
aVchaibschaibs
p3481
aVsuhanjang
p3482
aVfutureagent
p3483
aVkozzangnim
p3484
aVeunwoopark
p3485
aVmatthew-chang
p3486
aVinsuk
p3487
aV2kija
p3488
aVmygirl2797
p3489
aVwadizhib
p3490
aVsophia5787
p3491
aVmushman
p3492
aVcloud09
p3493
aVzagmaster
p3494
aVmobizenpekr
p3495
aVgisoopa
p3496
aVlifidea
p3497
aVgroovycat
p3498
aVjowlee
p3499
aVskykamja24
p3500
aVjungkloo
p3501
aVnachoclub
p3502
aVessie
p3503
aVjihoonjeong
p3504
aVbrunchflgu
p3505
aVdakji
p3506
aVzazzseo
p3507
aVchaeminc
p3508
aVsapu0000
p3509
aVhead77x
p3510
aVbeautytech
p3511
aVara
p3512
aVjimmyrim
p3513
aVnewsquare
p3514
aVdsuh
p3515
aVpjh992510
p3516
aVjodongin
p3517
aVcleliayounm
p3518
aVnanta23
p3519
aVwriterforone
p3520
aVbrunchk0qq
p3521
aVhope-stone
p3522
aVyoojs8512
p3523
aVsperalist
p3524
aVbrunch
p3525
assVmatthewjeong
p3526
(dp3527
g5
(lp3528
Vgoodvc78
p3529
aVbrunch
p3530
assVminwoohong
p3531
(dp3532
g5
(lp3533
Vgoodvc78
p3534
aVcojette
p3535
aVlifidea
p3536
aVyoojs8512
p3537
aVsclplus
p3538
aVbrunchflgu
p3539
assVstudioho6
p3540
(dp3541
g5
(lp3542
Vgoodvc78
p3543
aVcamlost
p3544
aVbrunch
p3545
assVhyochulbang
p3546
(dp3547
g5
(lp3548
Vridibooks
p3549
aVgoodvc78
p3550
aVjinsoo1eas
p3551
aVbanglab
p3552
aVbrunch
p3553
assVjasonson
p3554
(dp3555
g5
(lp3556
Vgoodvc78
p3557
aVxianglai
p3558
aVvaro
p3559
aVjmh5531
p3560
aVyoojs8512
p3561
aVbrunchflgu
p3562
aVcreativety
p3563
aVbrunch
p3564
assVcomfreak27
p3565
(dp3566
g5
(lp3567
Vcloud09
p3568
aVpelexus
p3569
aVcojette
p3570
aVgoodvc78
p3571
aVaidenswmo
p3572
aValden
p3573
aVlifidea
p3574
aVbrunch
p3575
assVchoikop
p3576
(dp3577
g5
(lp3578
Vgoodvc78
p3579
aVhaeegri
p3580
aVquane
p3581
aVbookdb
p3582
aVborashow
p3583
aVkaldokim
p3584
aVrothem
p3585
aV8percent
p3586
aVhmin0606
p3587
aVsclplus
p3588
aVmobizenpekr
p3589
aVsshong
p3590
aVjongsiksong
p3591
aVchoikyunghe
p3592
aVdbr
p3593
aVpromise4u
p3594
aVnitro2red
p3595
aVmatt
p3596
aVcomento
p3597
aVmarsnine
p3598
aVkooning11
p3599
aVmyte
p3600
aV2589000
p3601
aVdsuh
p3602
aVopencommz
p3603
aVgenie7pe
p3604
aVyoonash
p3605
aVgisoopa
p3606
aVyoojs8512
p3607
aVthingandthink
p3608
aVunitasbrand
p3609
aVwriter
p3610
aVdronestarting
p3611
aVlonelyplanet
p3612
aVpxdstory
p3613
aVbotongmarketer
p3614
aVjihoonjeong
p3615
aVjimmyrim
p3616
aVbrunch
p3617
assVakuku
p3618
(dp3619
g5
(lp3620
Vhaneulalice
p3621
aVgoodvc78
p3622
aVjnbells
p3623
aVsadrove
p3624
aVvijay
p3625
aVborashow
p3626
aVyper
p3627
aVsophia5787
p3628
aVbrunch
p3629
assVsooyoungpark
p3630
(dp3631
g5
(lp3632
Vsbcoba
p3633
aVgoodvc78
p3634
aVcleancode
p3635
aVarawn
p3636
aVbrunch
p3637
assVdexter85
p3638
(dp3639
g5
(lp3640
Vwonish
p3641
aVdobedobedo
p3642
aVmystelee
p3643
aVaboutheman
p3644
aVkooning11
p3645
aVcreativejuwon
p3646
aVtsp
p3647
aVhoyoungchoi
p3648
aVdaeper
p3649
aVgoodvc78
p3650
aVpelexus
p3651
aVimagineer
p3652
aVsabumbyun
p3653
aVpiux
p3654
aVjaeholee
p3655
aVjmh5531
p3656
aVunitasbrand
p3657
aVlifidea
p3658
aVdengine
p3659
aVmean1000
p3660
aVfreshcloud
p3661
aVqncompany
p3662
aVmobizenpekr
p3663
aVintranet
p3664
aVjihoonjeong
p3665
aVyoojs8512
p3666
aVbrunch
p3667
assVmarantz
p3668
(dp3669
g5
(lp3670
Vgalleryd
p3671
aVgoodvc78
p3672
aVhandend
p3673
aVminieetea
p3674
aVexuvia
p3675
aVbrunch
p3676
assVrainfk
p3677
(dp3678
g5
(lp3679
Vhakawati
p3680
aVgoodvc78
p3681
aV95kimik
p3682
aVbrunch
p3683
assVgettrend
p3684
(dp3685
g5
(lp3686
Vgoodvc78
p3687
aVjimmyrim
p3688
aVjade
p3689
aVfavorer
p3690
aVdohyunkim
p3691
aVajmind
p3692
aVjongsiksong
p3693
aVbrunchflgu
p3694
aVbrunch
p3695
assVsangchung
p3696
(dp3697
g5
(lp3698
Vwjchee
p3699
aVjaeseungmun
p3700
aVgenie7pe
p3701
aVgoodvc78
p3702
aV2kija
p3703
aVimagineer
p3704
aVmobiinside
p3705
aVtechsuda
p3706
aVdoubleshot
p3707
aVplusclov
p3708
aVjudiva
p3709
aVpsunny2
p3710
aVnachoclub
p3711
aVpromise4u
p3712
aVsclplus
p3713
aVyoonash
p3714
aVbeautytech
p3715
aVyoojs8512
p3716
aVchunje2
p3717
aVsavvynoh
p3718
aVtennistory
p3719
aVspeedlyh
p3720
aVyunjungseo
p3721
aVjsksoft
p3722
aVkangjak
p3723
aVjimmyrim
p3724
aVlifidea
p3725
aVjinkieun
p3726
aVbreakthrough
p3727
aVyoungwungkim
p3728
aVherosoob
p3729
aVchaibschaibs
p3730
aVsuyoung
p3731
aVsuhanjang
p3732
aVhaneulalice
p3733
aVbrunch
p3734
assVdriver97
p3735
(dp3736
g5
(lp3737
Vjeremycho
p3738
aVtroicacho
p3739
aVsungjoonnam
p3740
aVgoodvc78
p3741
aVmanya
p3742
aVlogostein
p3743
aVeastgo
p3744
aVstarskylight
p3745
aVjsksoft
p3746
aVwanleehani
p3747
aVbpark
p3748
aVhaneulalice
p3749
aVsuhanjang
p3750
aVmicamica199
p3751
aVhmin0606
p3752
aVjinkieun
p3753
aV1yearholiday
p3754
aVcaptaink
p3755
aVjigjang
p3756
aVperytail
p3757
aVyongjinjinipln
p3758
aVsophyntaste
p3759
aVbrunchlftm
p3760
aViamquadr
p3761
aVrothem
p3762
aVyoonjikwon
p3763
aVstillalive31
p3764
aVonec
p3765
aVgoodbyepain
p3766
aVannie
p3767
aV2kija
p3768
aVthebookman
p3769
aVsshong
p3770
aVbrunchflgu
p3771
aVbrunch
p3772
assVlobojeong
p3773
(dp3774
g5
(lp3775
Vgayoungpark
p3776
aVdaljasee
p3777
aVmr-kim
p3778
aVyoojs8512
p3779
aVtsp
p3780
aVsangpom
p3781
aVeunwoopark
p3782
aVwadizhib
p3783
aVgoodvc78
p3784
aVjimmyrim
p3785
aVdatasciencedude
p3786
aVbrunchv0py
p3787
aVdengine
p3788
aVjinhyunpark
p3789
aVmobiinside
p3790
aValleciel
p3791
aVredman1005
p3792
aVyoonash
p3793
aVslowmagazine
p3794
aVbrunch
p3795
aVillumi33
p3796
aVunitasbrand
p3797
assVbrunchkpyr
p3798
(dp3799
g5
(lp3800
Vgoodvc78
p3801
aVsuyoung
p3802
aVsooscape
p3803
aVjihere1001
p3804
assVidoun21htbb
p3805
(dp3806
g5
(lp3807
Vscottim
p3808
aVgoodvc78
p3809
aVmadvirus
p3810
aVbrunch
p3811
assVkkchman
p3812
(dp3813
g5
(lp3814
Vscottim
p3815
aVwootaklee
p3816
aVblackik
p3817
aVdoberman
p3818
aVkoreajb
p3819
aVgoodvc78
p3820
aVpelexus
p3821
aVhstyle84
p3822
aVacgroup
p3823
aVbrunchflgu
p3824
aVyoojs8512
p3825
aVfive0203
p3826
aVmanya
p3827
aVflytosky1117
p3828
aVbrunch4nrs
p3829
aVbreakthrough
p3830
aVsapu0000
p3831
aVjimmyrim
p3832
aVborashow
p3833
aVbrunchrd3j
p3834
aVyoonash
p3835
aVbrunch
p3836
assVhugeman
p3837
(dp3838
g5
(lp3839
Vgoodvc78
p3840
aVbwcho75
p3841
aVjsksoft
p3842
aVbrunch
p3843
assVredieon
p3844
(dp3845
g5
(lp3846
Vcaptaink
p3847
aVimagineer
p3848
aVsuhanjang
p3849
aVgoodvc78
p3850
aVbanghaklife
p3851
aVbrunchrl8a
p3852
aVfunder2000
p3853
aVgfsaham
p3854
aVbrunchlftm
p3855
aVcong
p3856
aVdaljasee
p3857
aVbrunch
p3858
assVcycy2222
p3859
(dp3860
g5
(lp3861
Vgoodvc78
p3862
aVbrunch
p3863
assVdohyeungkim
p3864
(dp3865
g5
(lp3866
Vdavidsr
p3867
aVjounghoyoo
p3868
aVrush1226
p3869
aVlifidea
p3870
aVgoodvc78
p3871
aVyoonash
p3872
aVeunwoopark
p3873
aVjaeyeonkim
p3874
aVsooscape
p3875
aVinsuk
p3876
aVsuyoung
p3877
aVmobizenpekr
p3878
aVsocialinnovator
p3879
aVjihoonjeong
p3880
aVpromise4u
p3881
aVyunjungseo
p3882
aVsophie89
p3883
aVbrunch
p3884
assVbrunchgrz
p3885
(dp3886
g5
(lp3887
Vvivakakao
p3888
aVdalda
p3889
aVsupims
p3890
aVjmh5531
p3891
aVgoodvc78
p3892
aValden
p3893
aVwjchee
p3894
aVkyeongwook-ma
p3895
aVjhwhjn
p3896
aVpxdstory
p3897
aVjigjang
p3898
aVbrunch
p3899
assVjakewpark
p3900
(dp3901
g5
(lp3902
Vzhanghaochen
p3903
aVhaneulalice
p3904
aVbrunchflgu
p3905
aVgoodvc78
p3906
aVjsksoft
p3907
aVnanta23
p3908
aVherosoob
p3909
aVbookfit
p3910
aVplatum
p3911
aVmobiinside
p3912
aVyoojs8512
p3913
aVyoungwungkim
p3914
aVdatasciencedude
p3915
aVchaibschaibs
p3916
aVcreativejuwon
p3917
aVkty0613
p3918
aVgisoopa
p3919
aVcloud09
p3920
aVbrunch
p3921
assVimage2man
p3922
(dp3923
g5
(lp3924
Vgoodvc78
p3925
aVbrunch
p3926
assVjeongsy10sqhn
p3927
(dp3928
g5
(lp3929
Vsustainlife
p3930
aVkjbsy
p3931
aVyspecial
p3932
aVgoodvc78
p3933
aVtechsuda
p3934
aVsabumbyun
p3935
aVhoho5492
p3936
aVbrunchega3
p3937
aVimagineer
p3938
aVyonghheo
p3939
aVmsfkorea
p3940
aVbookdb
p3941
aVbrunch
p3942
assVhmin0606
p3943
(dp3944
g5
(lp3945
Vborashow
p3946
aVscottim
p3947
aVinchangjung
p3948
aVdavidleec2qm
p3949
aVsendbird
p3950
aVgoodvc78
p3951
aVjiwoongnet
p3952
aVbrunch7dpc
p3953
aVpxdstory
p3954
aVspeedlyh
p3955
aVyunjungseo
p3956
aVsuyoung
p3957
aVmeanimize
p3958
aVfive0203
p3959
aVsapu0000
p3960
aVjino
p3961
aVhaneulalice
p3962
aVwanleehani
p3963
aVsean
p3964
aVlifidea
p3965
aVsooscape
p3966
aVjihere1001
p3967
aVyoojs8512
p3968
aVmyungsunkim
p3969
aVyongjinjinipln
p3970
aVjimmyrim
p3971
aVheejeong081
p3972
aVconamss
p3973
aVbrunch
p3974
assVwholeman
p3975
(dp3976
g5
(lp3977
Vplaydeep
p3978
aVlk-story
p3979
aVgoodvc78
p3980
aVchoihs0228
p3981
aVeomtank
p3982
aVkoreajb
p3983
aVgroovetube
p3984
aVbrunchflgu
p3985
aVeliotkang
p3986
aViamquadr
p3987
aVpromise4u
p3988
aVjmh5531
p3989
aVbrunch
p3990
assVhandojung
p3991
(dp3992
g5
(lp3993
Vcojette
p3994
aVgoodvc78
p3995
aVcloud09
p3996
aVlifidea
p3997
aVpelexus
p3998
aVbrunch
p3999
assVmammloveliyf
p4000
(dp4001
g5
(lp4002
Vromanticgrey
p4003
aVimagineer
p4004
aVroundyround
p4005
aVkozzangnim
p4006
aVsangwonsuh
p4007
aVtroicacho
p4008
aVtechus
p4009
aVlovefashion
p4010
aVmistyfriday
p4011
aVzagmaster
p4012
aVstevehan
p4013
aVraekim
p4014
aVflyjy724
p4015
aVsilsill
p4016
aVgoodvc78
p4017
aVrothem
p4018
aVcaptaink
p4019
aVethnographer
p4020
aVcinehvwm
p4021
aVyourboyhood
p4022
aVawsomeobig
p4023
aVkooning11
p4024
aVbrunch
p4025
assVthnku
p4026
(dp4027
g5
(lp4028
Vihearyou
p4029
aVmeanimize
p4030
aVsocialinnovator
p4031
aVquane
p4032
aVsooscape
p4033
aVgoodvc78
p4034
aVmitpiki
p4035
aVjaeholee
p4036
aVhyosha
p4037
aVpiux
p4038
aVjihoonjeong
p4039
aVwjchee
p4040
aVtechsuda
p4041
aVhmin0606
p4042
aVyunjungseo
p4043
aVmanya
p4044
aVlifidea
p4045
aVsuyoung
p4046
aVilwoncoach
p4047
aVhaneulalice
p4048
aVsoonkyujang
p4049
aV1yearholiday
p4050
aVsclplus
p4051
aVnanta23
p4052
aVspeedlyh
p4053
aVbrunch
p4054
assVreading15m
p4055
(dp4056
g5
(lp4057
Vtellcorea
p4058
aVtroicacho
p4059
aVjinsoo1eas
p4060
aVgoodvc78
p4061
aVdavidsr
p4062
aVhyunjaelee
p4063
aVaidenswmo
p4064
aVbrunchjqcb
p4065
aVhyejinchoi
p4066
aVjade
p4067
aVfutureagent
p4068
aVyoojs8512
p4069
aVaboutheman
p4070
aV2kija
p4071
aVmanya
p4072
aVverdesox
p4073
aVsoongyuahn
p4074
aVfunder2000
p4075
aVchaeminc
p4076
aVkimsophia57
p4077
aVsshong
p4078
aVkeymanjc
p4079
aVthebookman
p4080
aVseoulgrandma
p4081
aVsophie89
p4082
aVleenouy
p4083
aVblade31
p4084
aVbrunch
p4085
assVhosangjeon
p4086
(dp4087
g5
(lp4088
Vgoodvc78
p4089
aVpelexus
p4090
aVbrunch
p4091
assVeunjiniyaaaa
p4092
(dp4093
g5
(lp4094
Vcinehvwm
p4095
aVmusiroom
p4096
aVgoodvc78
p4097
aVpigs
p4098
aVbrunch
p4099
assVfivemin
p4100
(dp4101
g5
(lp4102
Vkozzangnim
p4103
aVimagineer
p4104
aV2miho
p4105
aVemor
p4106
aVquane
p4107
aVhangganread
p4108
aVpubjinson
p4109
aVbrunchjqcb
p4110
aVbrunchflgu
p4111
aVcats9030
p4112
aVibare
p4113
aVcreativejuwon
p4114
aVmemogekim
p4115
aVsunghyunlim
p4116
aVwipeshadow
p4117
aVgoodvc78
p4118
aVminieetea
p4119
aVsooscape
p4120
aVmariapearl
p4121
aVokmanp
p4122
aVhika
p4123
aVtechus
p4124
aVmanya
p4125
aVbrunch4nrs
p4126
aVeditorialbe
p4127
aVtimotolkie
p4128
aVinsuk
p4129
aVsophie89
p4130
aVmatt
p4131
aVeunwoopark
p4132
aVsclplus
p4133
aVtechhtml
p4134
aVjsksoft
p4135
aVfutureagent
p4136
aVsyrljk12
p4137
aVdalda
p4138
aVdaljasee
p4139
aVpapawolf
p4140
aVperytail
p4141
aVbanglab
p4142
aVsuyoung
p4143
aVjesin3
p4144
aVkkang
p4145
aVartmine
p4146
aVyudong
p4147
aV909090k
p4148
aVtourister
p4149
aVmaumdal
p4150
aVknockknock
p4151
aVdaddytt
p4152
aVtaebarii
p4153
aVhyejinchoi
p4154
aVlifidea
p4155
aV2589000
p4156
aVsapu0000
p4157
aVplusclov
p4158
aVrothem
p4159
aVmadvirus
p4160
aVbeautytech
p4161
aVwjchee
p4162
aValden
p4163
aVyongjinjinipln
p4164
aVjaeseungmun
p4165
aVmichellekim
p4166
aVgenie7pe
p4167
aVkisin
p4168
aViammento
p4169
aVsshong
p4170
aVcleancode
p4171
aVannejeong
p4172
aVchloelee
p4173
aVmanaka
p4174
aVpxdstory
p4175
aVstarrystella
p4176
assVdsuh
p4177
(dp4178
g5
(lp4179
Vimagineer
p4180
aVzamong
p4181
aVhottel
p4182
aVgoodvc78
p4183
aVhmin0606
p4184
aVraekim
p4185
aVnachoclub
p4186
aVsanghoonpak
p4187
aVjowlee
p4188
aVbrunch1kex
p4189
aVsclplus
p4190
aVdohyunkim
p4191
aVzingle
p4192
aVbrunchlftm
p4193
aViamquadr
p4194
aVlonelyplanet
p4195
aVsuperboger
p4196
aVshebought
p4197
aVbrunch597l
p4198
aVkrazyeom
p4199
aVamber
p4200
aVmarcel
p4201
assVlightandsalt74
p4202
(dp4203
g5
(lp4204
Vsshong
p4205
aVscottim
p4206
aVmarsnine
p4207
aVmitpiki
p4208
aVbwcho75
p4209
aVymlee
p4210
aVjobhelping
p4211
aVpelexus
p4212
aVvanheart
p4213
aVforplanb
p4214
aVzagmaster
p4215
aVchaibschaibs
p4216
aVsol8318
p4217
aVbrunchflgu
p4218
aVkyeongwook-ma
p4219
aVsooscape
p4220
aVsupims
p4221
aVdaeheejang
p4222
aVsbcoba
p4223
aVbrunchaukx
p4224
aVplusclov
p4225
aVgoodvc78
p4226
aVimagineer
p4227
aVeomtank
p4228
aVcojette
p4229
aVlifidea
p4230
aVroasterkay
p4231
aVhajunho
p4232
aVpubjinson
p4233
aVsunghyunlim
p4234
aVibare
p4235
aVinsuk
p4236
aVethobisx
p4237
aVhika
p4238
aVtechhtml
p4239
aVbrunch
p4240
assVdongchimi
p4241
(dp4242
g5
(lp4243
Vinternomago
p4244
aVgoodvc78
p4245
aVinsuk
p4246
aVmitmle
p4247
aVpubjinson
p4248
aVcleancode
p4249
aVkkan
p4250
aVyaeegi
p4251
aVdaljasee
p4252
aVminam
p4253
aVkimkwan
p4254
aVbrunch
p4255
assVjohanguk
p4256
(dp4257
g5
(lp4258
Vplusclov
p4259
aVgoodvc78
p4260
aVgfsaham
p4261
aVmobiinside
p4262
aVsnowyn
p4263
aVbrunch
p4264
assVtkdgur4848
p4265
(dp4266
g5
(lp4267
Vgoodvc78
p4268
aVbrunch
p4269
assVwinter
p4270
(dp4271
g5
(lp4272
Vbizism
p4273
aVbeat
p4274
aVchaibschaibs
p4275
aVoyeoye
p4276
aVeusun
p4277
aVbrunchjqcb
p4278
aVkakaoux
p4279
aVgoodvc78
p4280
aVgreenful
p4281
aVbenhyunwookim
p4282
aVlifidea
p4283
aVgahye
p4284
aVcinehvwm
p4285
aVjangnoah
p4286
aVawsomeobig
p4287
aVraekim
p4288
aVquane
p4289
aVgroovetube
p4290
aVoye
p4291
aVsooscape
p4292
aVkid
p4293
aVsabumbyun
p4294
aVwjchee
p4295
aVbluehiker
p4296
aVbwcho75
p4297
aVkne
p4298
aVlucidfall
p4299
aVbrunch6tjq
p4300
aVsuyoung
p4301
aVsanmi
p4302
aVkimyoungha
p4303
aVluckyla
p4304
aVkkang
p4305
aVborashow
p4306
aVsean
p4307
aVpromise4u
p4308
aVlineon
p4309
aVmadder
p4310
aVmediateam
p4311
aVghamsung
p4312
aVheyum
p4313
aVsuhanjang
p4314
aVgalleryd
p4315
aVpiux
p4316
aVheesupomkim
p4317
aVkooning11
p4318
aVkrazyeom
p4319
aVjimmyrim
p4320
aVtinyhippostory
p4321
aVreader76
p4322
aVeastgo
p4323
aVsoleewogur
p4324
aVdalda
p4325
aVonec
p4326
aVthebookman
p4327
aVromanticgrey
p4328
aVcysstory
p4329
aVzhanghaochen
p4330
aVstillalive31
p4331
aVdaljasee
p4332
aVmiretia
p4333
aVsustainlife
p4334
aVstopfornow
p4335
aVparcchanyong
p4336
aVhyvision
p4337
aVflip
p4338
aVyujunsang
p4339
aVyellowid
p4340
aV20timeline
p4341
aVkimmincheol
p4342
aVlookfar
p4343
aVbrunchywnw
p4344
aVnonie1
p4345
aVperytail
p4346
aValleciel
p4347
aVsongjh03
p4348
aVyangsungmin
p4349
aVbrunch
p4350
aVhcyoon
p4351
aVlumafonto
p4352
aVminam
p4353
aVlonelyplanet
p4354
aVpxdstory
p4355
aVsein
p4356
aVeugene
p4357
aVbrunchhxlw
p4358
aVohyjprqk
p4359
aVbanghaklife
p4360
aVkimkwan
p4361
aVtornpaper
p4362
aVara
p4363
aVjinsupark
p4364
aVdeleuze
p4365
aVwanleehani
p4366
aVgreece7
p4367
aVcsj3814
p4368
aVtina337
p4369
aVstorytailor
p4370
aVwoong0731
p4371
aVyirgachefe
p4372
aVjin
p4373
aVbrunch8m3s
p4374
aVwhaletreeking
p4375
aValice
p4376
aVhabit
p4377
aVhwaada
p4378
aVzazzseo
p4379
aVsadrove
p4380
aVluciedream
p4381
aVprayise
p4382
aVyeda
p4383
aVmarcel
p4384
assVjeongdeoksu7n2z
p4385
(dp4386
g5
(lp4387
Vscottim
p4388
aVgoodvc78
p4389
aVinsuk
p4390
aVwanleehani
p4391
aVcleancode
p4392
aVbrunch
p4393
assVjaeyeonkim
p4394
(dp4395
g5
(lp4396
Vchaibschaibs
p4397
aVsperalist
p4398
aVwikitree
p4399
aVsshong
p4400
aVdugi
p4401
aVgoodvc78
p4402
aVthebetterday
p4403
aVdatasciencedude
p4404
aVngelmaum
p4405
aVzip
p4406
aVsuyoung
p4407
aVyoungwungkim
p4408
aVsclplus
p4409
aVinsuk
p4410
aVtechsuda
p4411
aVjinyoungkimpgzt
p4412
aVdoberman
p4413
aVcojette
p4414
aVhojunkim
p4415
aVcloud09
p4416
aVilwoncoach
p4417
aVrothem
p4418
aVcreativety
p4419
aVskpman
p4420
aVyannheo
p4421
aVlifidea
p4422
aVjimmyrim
p4423
aVdbr
p4424
aVpromise4u
p4425
aV1yearholiday
p4426
aVmicamica199
p4427
aVhope-stone
p4428
aViamquadr
p4429
aVhackathon
p4430
aVhmin0606
p4431
aVjisuyang
p4432
aVjihoonjeong
p4433
aVkid
p4434
aVbrunch
p4435
assVbrunchf4yz
p4436
(dp4437
g5
(lp4438
Vgoodvc78
p4439
aVlifidea
p4440
aVcojette
p4441
aVbrunch
p4442
assVjungi
p4443
(dp4444
g5
(lp4445
Vscottim
p4446
aVchaibschaibs
p4447
aVddny
p4448
aVvinnie
p4449
aVsupims
p4450
aVsiliconroad
p4451
aVyper
p4452
aVpelexus
p4453
aVkoreajb
p4454
aViammento
p4455
aVjeremycho
p4456
aVsocialmkt
p4457
aVimagineer
p4458
aVmadvirus
p4459
aVrothem
p4460
aVjaydenkim
p4461
aVbrunchflgu
p4462
aVkim432432
p4463
aVzip
p4464
aVbotongmarketer
p4465
aVyoungwungkim
p4466
aVdatasciencedude
p4467
aVaidenswmo
p4468
aVjaeyeonkim
p4469
aV95kimik
p4470
aVjigjang
p4471
aVeastgo
p4472
aVblade31
p4473
aVsshong
p4474
aVzamong
p4475
aVdaddytt
p4476
aVpaper
p4477
aVyoojs8512
p4478
aVbeautytech
p4479
aVjeffpaik
p4480
aVbreakthrough
p4481
aVmatt
p4482
aVtornpaper
p4483
aVlifidea
p4484
aVyongjinjinipln
p4485
aVson6336
p4486
aVjimmyrim
p4487
aVmitpiki
p4488
aVbwcho75
p4489
aVmobiinside
p4490
aVtechsuda
p4491
aVgoodvc78
p4492
aVsshongnim
p4493
aVarawn
p4494
aVcleancode
p4495
aVindilab
p4496
aVinsuk
p4497
aVbrunch
p4498
assVletsgo90
p4499
(dp4500
g5
(lp4501
Vsos
p4502
aVgoodvc78
p4503
aVaidenswmo
p4504
aVmistyfriday
p4505
aVinsuk
p4506
aVbreakthrough
p4507
aVtechsuda
p4508
aVjimmyrim
p4509
aVmygirl2797
p4510
aVvijay
p4511
aVhaneulalice
p4512
aVkwihun80
p4513
aVyoonash
p4514
aVbo0
p4515
aVbrunch
p4516
assVarowon
p4517
(dp4518
g5
(lp4519
Vgoodvc78
p4520
aVbrunch
p4521
assVwatermsy
p4522
(dp4523
g5
(lp4524
Vkimjiyoun
p4525
aVchyes
p4526
aVhomoartcus
p4527
aVgunbbang
p4528
aVbirlzip
p4529
aVsavvynoh
p4530
aV2kija
p4531
aVkangjak
p4532
aVintranet
p4533
aVgoodvc78
p4534
aVsunsutu
p4535
aVcfpajay
p4536
aVcaptaink
p4537
aVtwo-tone
p4538
aVsymriro
p4539
aVhesse24
p4540
aVbrunch
p4541
assVbiggold
p4542
(dp4543
g5
(lp4544
Vsungwooan
p4545
aVreinitiate
p4546
aVtimotolkie
p4547
aVgoodvc78
p4548
aVnpulen
p4549
aVbrunchnwkd
p4550
aVdndb21
p4551
aVkyeongwook-ma
p4552
aVhakawati
p4553
aVlwh0416
p4554
aVjowlee
p4555
aVwanleehani
p4556
aVkimjiyoun
p4557
aVkkonal
p4558
aVtoriteller
p4559
aVmatt
p4560
aVsjmsg
p4561
aVreadmoney
p4562
aVbang1999
p4563
aVethobisx
p4564
aVchunje2
p4565
aVcreativejuwon
p4566
aVbrunchizh0
p4567
aVsbcoba
p4568
aVcomics119
p4569
aVperytail
p4570
aVtourism
p4571
aVarawn
p4572
aVpxdstory
p4573
aVkyugeng
p4574
aVebraim
p4575
aVfutureagent
p4576
aVelijah17
p4577
aVhurderella
p4578
aVhancoma
p4579
aValden
p4580
aVhjinu
p4581
aVwonhada
p4582
aVc4u
p4583
aVmadvirus
p4584
aVhika
p4585
aVhstyle84
p4586
aVhajunho
p4587
aVhmin0606
p4588
aVihoneymon
p4589
aVbreakthrough
p4590
aVsclplus
p4591
aVtechsuda
p4592
aVpubjinson
p4593
aVplusclov
p4594
aVgoodbyepain
p4595
aVbrunchflgu
p4596
aVminieetea
p4597
aVjhwhjn
p4598
aVtechhtml
p4599
aVinsuk
p4600
aVreading15m
p4601
aVshoostory
p4602
aVbookdb
p4603
aVjihere1001
p4604
aVjade
p4605
aVtechinpark
p4606
aVspeedlyh
p4607
aVsapu0000
p4608
aVyunjungseo
p4609
aVsuyoung
p4610
aVjimmyrim
p4611
aVmeanimize
p4612
aVsooscape
p4613
aV2589000
p4614
aVsshong
p4615
aVbrunch
p4616
assVdaniellee8xtu
p4617
(dp4618
g5
(lp4619
Vkkonal
p4620
aVdatasciencedude
p4621
aVgoodvc78
p4622
aVbrunch
p4623
assVbrunchwboh
p4624
(dp4625
g5
(lp4626
Vcpa1997
p4627
aVjeremycho
p4628
aVeunwoopark
p4629
aVbriancheong
p4630
aVtsp
p4631
aVdavidsr
p4632
aVgoodvc78
p4633
aVpigs
p4634
aVscottim
p4635
aVwjchee
p4636
aVsclplus
p4637
aVjowlee
p4638
aVborashow
p4639
aVjounghoyoo
p4640
aVdsuh
p4641
aVkkonal
p4642
aVjihoonjeong
p4643
aVhead77x
p4644
aVwanleehani
p4645
aVbrunchflgu
p4646
aVyoojs8512
p4647
aVhomoartcus
p4648
aVmrnoface
p4649
aVbrunch
p4650
assVbrunchdnku
p4651
(dp4652
g5
(lp4653
Vdugi
p4654
aVgoodvc78
p4655
aVbrunchflgu
p4656
aVlifidea
p4657
aVguitarohyyy
p4658
aVbrunch4nrs
p4659
aVwjchee
p4660
aVsshong
p4661
aVbrunch
p4662
assVdrive0822
p4663
(dp4664
g5
(lp4665
Vgoodvc78
p4666
aVbreakthrough
p4667
aVbrunch
p4668
assVkihwanlee
p4669
(dp4670
g5
(lp4671
Vgoodvc78
p4672
aVbrunch
p4673
assVkk760105
p4674
(dp4675
g5
(lp4676
Vtroicacho
p4677
aVgoodvc78
p4678
aVlifidea
p4679
aVcojette
p4680
aVcloud09
p4681
aVjoonomics
p4682
aVglosh721
p4683
aVngelmaum
p4684
aVbrunch
p4685
assVleehs1017
p4686
(dp4687
g5
(lp4688
Vpelexus
p4689
aVinsuk
p4690
aVbrunchlftm
p4691
aVbrunch4nrs
p4692
aVgoodvc78
p4693
aVmadvirus
p4694
aVjcsla
p4695
aVhajunho
p4696
aVhika
p4697
aVwjchee
p4698
aVyoojs8512
p4699
aVmobiinside
p4700
aVtechhtml
p4701
aVmadchick
p4702
aVmyungjae7
p4703
aVklaus
p4704
aVkyeongwook-ma
p4705
aVarawn
p4706
aVcleancode
p4707
aVbrunch
p4708
assVcheonxtqj
p4709
(dp4710
g5
(lp4711
Vno1hsk
p4712
aVplatum
p4713
aVmoganam
p4714
aVplaydeep
p4715
aVjaeyeonkim
p4716
aVgoodvc78
p4717
aVcloud09
p4718
aV95kimik
p4719
aVyoungwungkim
p4720
aVcojette
p4721
aVlifidea
p4722
aVbrunch
p4723
assVdosirak48
p4724
(dp4725
g5
(lp4726
Vloveinsight
p4727
aVgoodvc78
p4728
aVmsra81
p4729
aVbrunch54qz
p4730
aVpuding
p4731
aVsabumbyun
p4732
aVplusclov
p4733
aV2kija
p4734
aVcats9030
p4735
aVstillalive31
p4736
aVneonism1
p4737
aVclinky85
p4738
aV95kimik
p4739
aVflyhik
p4740
aVridibooks
p4741
aVminpark
p4742
aVchaeminc
p4743
aVyoojs8512
p4744
aVleenouy
p4745
aVtukss
p4746
aVskyhope617
p4747
aVintranet
p4748
aVonec
p4749
aVsuomi
p4750
aVkangjak
p4751
aVwritingo119
p4752
aVbrunchrl8a
p4753
aVkisook
p4754
aVcsj3814
p4755
aVjimmyrim
p4756
aVgoodman1235
p4757
aVcdup1
p4758
aVhosungsong
p4759
aVbrunch
p4760
assVhanyong
p4761
(dp4762
g5
(lp4763
Vscottim
p4764
aVchaibschaibs
p4765
aVdugi
p4766
aVjmh5531
p4767
aVsungjoonnam
p4768
aVkkonal
p4769
aVsuhanjang
p4770
aVchoihs0228
p4771
aVtsp
p4772
aVpangol75
p4773
aVemor
p4774
aVimagineer
p4775
aVcloud09
p4776
aVminieetea
p4777
aVmobiinside
p4778
aVsabumbyun
p4779
aVgoodvc78
p4780
aVgokeshi
p4781
aVjaeholee
p4782
aVfunder2000
p4783
aVbrunchflgu
p4784
aVhyosha
p4785
aVmanya
p4786
aVsooscape
p4787
aVspeedlyh
p4788
aVyunjungseo
p4789
aVmeanimize
p4790
aV2kija
p4791
aVzagmaster
p4792
aVsapu0000
p4793
aVyoungwungkim
p4794
aVyongjinjinipln
p4795
aVflatdesign
p4796
aVjihere1001
p4797
aVrefreshstudio
p4798
aVsuyoung
p4799
aVdol74
p4800
aVjoohoonjake
p4801
aVbrunch4nrs
p4802
aVmygirl2797
p4803
aVyoojs8512
p4804
aVhannewa
p4805
aVskysabre
p4806
aVjimmyrim
p4807
aVhmin0606
p4808
aVjuneleerk9b
p4809
aVjinkieun
p4810
aVsocialinnovator
p4811
aVlifidea
p4812
aVbo0
p4813
aVpxdstory
p4814
aVbrunch
p4815
assVbrunchjklr
p4816
(dp4817
g5
(lp4818
Vastronomerboy
p4819
aVsunnyluvin
p4820
aVskyzakard
p4821
aVjamding
p4822
aVsshong
p4823
aVgoodvc78
p4824
aVsunsutu
p4825
aVbrunchxecm
p4826
aVyooncohg
p4827
aV2kija
p4828
aVintranet
p4829
aVrothem
p4830
aVwjchee
p4831
aVbang1999
p4832
aVelara1020
p4833
aVdohyunkim
p4834
aVkimandrew
p4835
aVkooning11
p4836
aVblade31
p4837
aVbrunchflgu
p4838
aVbrunch
p4839
assVvins103
p4840
(dp4841
g5
(lp4842
Veunwoopark
p4843
aVsendbird
p4844
aVgoodvc78
p4845
aVcleancode
p4846
aVbrunchlftm
p4847
aVbrunch
p4848
assVhaaagood
p4849
(dp4850
g5
(lp4851
Vgoodvc78
p4852
aVmissingmay
p4853
aVsooscape
p4854
aVminieetea
p4855
aVyunjungseo
p4856
aVsuyoung
p4857
aVjimmyrim
p4858
aVbreakthrough
p4859
aVjungkloo
p4860
aVlifidea
p4861
aVbrunch
p4862
assVbizzaru7
p4863
(dp4864
g5
(lp4865
Vgoodvc78
p4866
aVbrunch
p4867
assVgskyeong
p4868
(dp4869
g5
(lp4870
Vgoodvc78
p4871
aVinsuk
p4872
aVhavaqquq
p4873
aV8percent
p4874
aVfutureagent
p4875
aVsunnysideup
p4876
aVbrunch4nrs
p4877
aVbrunchflgu
p4878
aVgoodman1235
p4879
aVmadder
p4880
aVeasygo
p4881
aVlifidea
p4882
aVhaneulalice
p4883
aVbrunch
p4884
assVkodatt
p4885
(dp4886
g5
(lp4887
Vmitpiki
p4888
aVscottim
p4889
aVyeinz
p4890
aVsangwonsuh
p4891
aVteddybae
p4892
aVdavidsr
p4893
aVjiyonglee
p4894
aVjesus3341
p4895
aVsigol
p4896
aVdstory
p4897
aVmfsaja
p4898
aVjeremycho
p4899
aVbizism
p4900
aVmang
p4901
aVsol8318
p4902
aVsujinleeme
p4903
aVphilosophus
p4904
aVlovefashion
p4905
aVridibooks
p4906
aVwonish
p4907
aVcreativejuwon
p4908
aVc4u
p4909
aViammento
p4910
aVstillalive31
p4911
aVjinsoo1eas
p4912
aVlogostein
p4913
aVhajunho
p4914
aVcomics119
p4915
aVforsy20
p4916
aVeejsung
p4917
aVreconceptor
p4918
aVkim432432
p4919
aVchaibschaibs
p4920
aViyagikot
p4921
aVtourism
p4922
aVjupiter
p4923
aVstevehan
p4924
aVpelexus
p4925
aV4u4u
p4926
aVgahye
p4927
aVollein
p4928
aVdalda
p4929
aVmadvirus
p4930
aVtwo-tone
p4931
aVcinehvwm
p4932
aVawsomeobig
p4933
aVgoodvc78
p4934
aVgalleryd
p4935
aVmarupress
p4936
aVquane
p4937
aVsabumbyun
p4938
aVdelight412
p4939
aVdigh1231231
p4940
aVyokurong
p4941
aVaghermes
p4942
aVibare
p4943
aVsunghyunlim
p4944
aVkmin
p4945
aVhstyle84
p4946
aVvijay
p4947
aVstevenh
p4948
aVcpa1997
p4949
aVstarskylight
p4950
aVdeckey1985
p4951
aVsymriro
p4952
aVsunnyluvin
p4953
aVmanya
p4954
aVyulyul
p4955
aVblade31
p4956
aVeunwoopark
p4957
aVwritingo119
p4958
aVromanticgrey
p4959
aVpubjinson
p4960
aVsnowcountry
p4961
aVarambaek
p4962
aVneddaland
p4963
aVsuhanjang
p4964
aVmeanimize
p4965
aVjnbells
p4966
aVgangbaram
p4967
aVyper
p4968
aVkozzangnim
p4969
aVjhwhjn
p4970
aVtaeheekim
p4971
aVjaeseungmun
p4972
aVmygirl2797
p4973
aVcojette
p4974
aVwo-motivator
p4975
aVseokay85
p4976
aVwherevermis
p4977
aVbookdb
p4978
aVexuvia
p4979
aVxianglai
p4980
aVcloud09
p4981
aVbwcho75
p4982
aVcrisis-mgmt
p4983
aVreading15m
p4984
aVopri
p4985
aVtechsuda
p4986
aVlumafonto
p4987
aVmushman
p4988
aVhanit
p4989
aVmobizenpekr
p4990
aVbh4848park
p4991
aVfutureagent
p4992
aVsyrljk12
p4993
aVchauchau
p4994
aVyannheo
p4995
aVsongjh03
p4996
aVfavorer
p4997
aVjsksoft
p4998
aVjinheepark6a8q
p4999
aVhead77x
p5000
aVherosoob
p5001
aVsuyoung
p5002
aVwirteforwrong
p5003
aVmystelee
p5004
aV2kija
p5005
aVpunk69
p5006
aVraekim
p5007
aVbotongmarketer
p5008
aVmyungsunkim
p5009
aVbpark
p5010
aVbang1999
p5011
aVmihyangeun
p5012
aVsanghoonpak
p5013
aVillumi33
p5014
aVtornpaper
p5015
aVwoody5718
p5016
aVjay8zg0
p5017
aVmelanellie
p5018
aVyoonjikwon
p5019
aVheonil
p5020
aVartmerchant
p5021
aVmicamica199
p5022
aVplatina02
p5023
aVmobiinside
p5024
aVsooscape
p5025
aVfive0203
p5026
aVkimkwan
p5027
aVfunder2000
p5028
aVwjchee
p5029
aVknockknock
p5030
aVflyjy724
p5031
aVvivakakao
p5032
aVyyanistory
p5033
aVkkang
p5034
aVeditorialbe
p5035
aVmegaonic
p5036
aVlainydays
p5037
aVpinie
p5038
aVshoostory
p5039
aVbrunchmpto
p5040
aVjungkloo
p5041
aVhappyclown
p5042
aVbreakthrough
p5043
aVsapu0000
p5044
aVjaehojaeho
p5045
aVjoohoonjake
p5046
aVmistyfriday
p5047
aVdigitaldreamer
p5048
aVjejugrapher
p5049
aVjinhyuklee
p5050
aVprorange
p5051
aVjongsiksong
p5052
aVkooning11
p5053
aVseiweb
p5054
aVskpman
p5055
aVhyejinchoi
p5056
aVecrireici
p5057
aVonec
p5058
aVchaeminc
p5059
aVkwihun80
p5060
aVsustainlife
p5061
aVmumu
p5062
aVchoikop
p5063
aVnanta23
p5064
aVkangjak
p5065
aVjeffpaik
p5066
aVborashow
p5067
aVjinkieun
p5068
aVyooatic84
p5069
aVsaewookkangboy
p5070
aVajmind
p5071
aVclinky85
p5072
aVhosungsong
p5073
aVruby823
p5074
aVlyju7479
p5075
aVopencommz
p5076
aVperytail
p5077
aVdongkyoonno
p5078
aVdaljasee
p5079
aVzagmaster
p5080
aV909090k
p5081
aVhope-stone
p5082
aVsclplus
p5083
aVsong720
p5084
aViamquadr
p5085
aVcaptaink
p5086
aVeundang
p5087
aVjimmyrim
p5088
aVjmh5531
p5089
aVsophie89
p5090
aVdooilkim
p5091
aVyoonash
p5092
aVwadizhib
p5093
aVlifidea
p5094
aVilwoncoach
p5095
aVleaven
p5096
aVgenie7pe
p5097
aVvioletcloud
p5098
aVpromise4u
p5099
aVrothem
p5100
aVbrunchflgu
p5101
aVhmin0606
p5102
aVsshong
p5103
aVkisin
p5104
aVyoojs8512
p5105
aVchanny
p5106
aVbrunch
p5107
assVwebyi
p5108
(dp5109
g5
(lp5110
Vgoodvc78
p5111
aVsuyoung
p5112
aVyunjungseo
p5113
aV84fluxus
p5114
aVelara1020
p5115
aVnanta23
p5116
aVyoonash
p5117
aVbrunchflgu
p5118
aVdengine
p5119
aVbrunch
p5120
assVsooen90
p5121
(dp5122
g5
(lp5123
Vbookdb
p5124
aVgoodvc78
p5125
aVpelexus
p5126
aVyper
p5127
aVskyscanner
p5128
aVsunsutu
p5129
aVimagineer
p5130
aVneddaland
p5131
aVgoodbyepain
p5132
aVcloud
p5133
aVsadrove
p5134
aVtechhtml
p5135
aVacet
p5136
aVcojette
p5137
aVlifidea
p5138
aVbreakthrough
p5139
aVinsuk
p5140
aVbh4848park
p5141
aVcleancode
p5142
aVwherevermis
p5143
aVsavvynoh
p5144
aVlonelyplanet
p5145
aVcsco2pw2gt
p5146
aVherenthere
p5147
aVdohyunkim
p5148
aVlucykey
p5149
aVlainydays
p5150
aVjinmuk
p5151
aVcloud09
p5152
aVdono
p5153
aVson6336
p5154
aVtomnterri
p5155
aVryanmoon83
p5156
aVdoubleshot
p5157
aVamber
p5158
aVstevepark
p5159
aVmyte
p5160
aVmatthew-chang
p5161
aVchaechae
p5162
aVbrunch4nrs
p5163
aVbrunch
p5164
assVvisionholic
p5165
(dp5166
g5
(lp5167
Vthick99
p5168
aVjumjan
p5169
aVchoihs0228
p5170
aVmonthlyclub
p5171
aVwootaklee
p5172
aVgoodvc78
p5173
aVtsp
p5174
aVzhongmin
p5175
aVymlee
p5176
aVchooba
p5177
aVtheblackdog
p5178
aVcinehvwm
p5179
aVwater-dragon
p5180
aVgroovetube
p5181
aVyooobing
p5182
aVkoala
p5183
aVyellowtrip
p5184
aVitsooda
p5185
aVfutureagent
p5186
aVnanta23
p5187
aVmicamica199
p5188
aVkimjoon
p5189
aVmrnoface
p5190
aVyannheo
p5191
aVsooscape
p5192
aVpromise4u
p5193
aVsooh95
p5194
aVmygirl2797
p5195
aVvaro
p5196
aVbrunch4nrs
p5197
aVdaljasee
p5198
aVromanticgrey
p5199
aVprorange
p5200
aVhannewa
p5201
aVkwihun80
p5202
aVfromairplane
p5203
aVgfsaham
p5204
aVjinkieun
p5205
aVwritingmango
p5206
aVerinnnnn
p5207
aVfunder2000
p5208
aVmumu
p5209
aVborashow
p5210
aVcli-annah
p5211
aVgrowingmom
p5212
aVshoostory
p5213
aVessie
p5214
aVchaeminc
p5215
aVjoshkwon
p5216
aVyoonash
p5217
aVsonjunsu
p5218
aVruddozz
p5219
aVnightpup
p5220
aVbrunchflgu
p5221
aVsoleillove
p5222
aVgoodman1235
p5223
aVmaumdal
p5224
aVtaebarii
p5225
aVknockknock
p5226
aVbreakthrough
p5227
aV1100px
p5228
aVyounglemoon
p5229
aVbrunch7fdv
p5230
aVphilosophus
p5231
aVqurity
p5232
aVkooning11
p5233
aVredman1005
p5234
aVrothem
p5235
aVsteven
p5236
aVkkonal
p5237
aVsuhanjang
p5238
aVjimmyrim
p5239
aVbrunchlftm
p5240
aVmakecake
p5241
aVwo-motivator
p5242
aVafterworkdj
p5243
aVexuvia
p5244
aVcreativety
p5245
aVstillalive31
p5246
aVyoonjikwon
p5247
aVpxdstory
p5248
aVgoodbyepain
p5249
aVyoojs8512
p5250
aVwjchee
p5251
aVparkhyungsik
p5252
asss.